(iinternal_font_class
Font
p1
(dp2
S'current'
p3
I110
sS'bg'
p4
(dp5
S'r'
I16534
sS'b'
I16384
sS'g'
I37748
ssS'_rows'
p6
I8
sS'changed'
p7
I00
sS'_cols'
p8
I8
sS'_chars'
p9
(lp10
(lp11
(lp12
I0
aI0
aI0
aI0
aI0
aI0
aI0
aI0
aa(lp13
I0
aI0
aI0
aI0
aI0
aI0
aI0
aI0
aa(lp14
I0
aI0
aI0
aI0
aI0
aI0
aI0
aI0
aa(lp15
I0
aI0
aI0
aI0
aI0
aI0
aI0
aI0
aa(lp16
I0
aI0
aI0
aI0
aI0
aI0
aI0
aI0
aa(lp17
I0
aI0
aI0
aI0
aI0
aI0
aI0
aI0
aa(lp18
I0
aI0
aI0
aI0
aI0
aI0
aI0
aI0
aa(lp19
I0
aI0
aI0
aI0
aI0
aI0
aI0
aI0
aaa(lp20
(lp21
I0
aI0
aI0
aI0
aI0
aI0
aI0
aI0
aa(lp22
I0
aI0
aI0
aI0
aI0
aI0
aI0
aI0
aa(lp23
I0
aI0
aI0
aI0
aI0
aI0
aI0
aI0
aa(lp24
I0
aI0
aI0
aI0
aI0
aI0
aI0
aI0
aa(lp25
I0
aI0
aI0
aI0
aI0
aI0
aI0
aI0
aa(lp26
I0
aI0
aI0
aI0
aI0
aI0
aI0
aI0
aa(lp27
I0
aI0
aI0
aI0
aI0
aI0
aI0
aI0
aa(lp28
I0
aI0
aI0
aI0
aI0
aI0
aI0
aI0
aaa(lp29
(lp30
I0
aI0
aI0
aI0
aI0
aI0
aI0
aI0
aa(lp31
I0
aI0
aI0
aI0
aI0
aI0
aI0
aI0
aa(lp32
I0
aI0
aI0
aI0
aI0
aI0
aI0
aI0
aa(lp33
I0
aI0
aI0
aI0
aI0
aI0
aI0
aI0
aa(lp34
I0
aI0
aI0
aI0
aI0
aI0
aI0
aI0
aa(lp35
I0
aI0
aI0
aI0
aI0
aI0
aI0
aI0
aa(lp36
I0
aI0
aI0
aI0
aI0
aI0
aI0
aI0
aa(lp37
I0
aI0
aI0
aI0
aI0
aI0
aI0
aI0
aaa(lp38
(lp39
I0
aI0
aI0
aI0
aI0
aI0
aI0
aI0
aa(lp40
I0
aI0
aI0
aI0
aI0
aI0
aI0
aI0
aa(lp41
I0
aI0
aI0
aI0
aI0
aI0
aI0
aI0
aa(lp42
I0
aI0
aI0
aI0
aI0
aI0
aI0
aI0
aa(lp43
I0
aI0
aI0
aI0
aI0
aI0
aI0
aI0
aa(lp44
I0
aI0
aI0
aI0
aI0
aI0
aI0
aI0
aa(lp45
I0
aI0
aI0
aI0
aI0
aI0
aI0
aI0
aa(lp46
I0
aI0
aI0
aI0
aI0
aI0
aI0
aI0
aaa(lp47
(lp48
I0
aI0
aI0
aI0
aI0
aI0
aI0
aI0
aa(lp49
I0
aI0
aI0
aI0
aI0
aI0
aI0
aI0
aa(lp50
I0
aI0
aI0
aI0
aI0
aI0
aI0
aI0
aa(lp51
I0
aI0
aI0
aI0
aI0
aI0
aI0
aI0
aa(lp52
I0
aI0
aI0
aI0
aI0
aI0
aI0
aI0
aa(lp53
I0
aI0
aI0
aI0
aI0
aI0
aI0
aI0
aa(lp54
I0
aI0
aI0
aI0
aI0
aI0
aI0
aI0
aa(lp55
I0
aI0
aI0
aI0
aI0
aI0
aI0
aI0
aaa(lp56
(lp57
I0
aI0
aI0
aI0
aI0
aI0
aI0
aI0
aa(lp58
I0
aI0
aI0
aI0
aI0
aI0
aI0
aI0
aa(lp59
I0
aI0
aI0
aI0
aI0
aI0
aI0
aI0
aa(lp60
I0
aI0
aI0
aI0
aI0
aI0
aI0
aI0
aa(lp61
I0
aI0
aI0
aI0
aI0
aI0
aI0
aI0
aa(lp62
I0
aI0
aI0
aI0
aI0
aI0
aI0
aI0
aa(lp63
I0
aI0
aI0
aI0
aI0
aI0
aI0
aI0
aa(lp64
I0
aI0
aI0
aI0
aI0
aI0
aI0
aI0
aaa(lp65
(lp66
I0
aI0
aI0
aI0
aI0
aI0
aI0
aI0
aa(lp67
I0
aI0
aI0
aI0
aI0
aI0
aI0
aI0
aa(lp68
I0
aI0
aI0
aI0
aI0
aI0
aI0
aI0
aa(lp69
I0
aI0
aI0
aI0
aI0
aI0
aI0
aI0
aa(lp70
I0
aI0
aI0
aI0
aI0
aI0
aI0
aI0
aa(lp71
I0
aI0
aI0
aI0
aI0
aI0
aI0
aI0
aa(lp72
I0
aI0
aI0
aI0
aI0
aI0
aI0
aI0
aa(lp73
I0
aI0
aI0
aI0
aI0
aI0
aI0
aI0
aaa(lp74
(lp75
I0
aI0
aI0
aI0
aI0
aI0
aI0
aI0
aa(lp76
I0
aI0
aI0
aI0
aI0
aI0
aI0
aI0
aa(lp77
I0
aI0
aI0
aI0
aI0
aI0
aI0
aI0
aa(lp78
I0
aI0
aI0
aI0
aI0
aI0
aI0
aI0
aa(lp79
I0
aI0
aI0
aI0
aI0
aI0
aI0
aI0
aa(lp80
I0
aI0
aI0
aI0
aI0
aI0
aI0
aI0
aa(lp81
I0
aI0
aI0
aI0
aI0
aI0
aI0
aI0
aa(lp82
I0
aI0
aI0
aI0
aI0
aI0
aI0
aI0
aaa(lp83
(lp84
I0
aI0
aI0
aI0
aI0
aI0
aI0
aI0
aa(lp85
I0
aI0
aI0
aI0
aI0
aI0
aI0
aI0
aa(lp86
I0
aI0
aI0
aI0
aI0
aI0
aI0
aI0
aa(lp87
I0
aI0
aI0
aI0
aI0
aI0
aI0
aI0
aa(lp88
I0
aI0
aI0
aI0
aI0
aI0
aI0
aI0
aa(lp89
I0
aI0
aI0
aI0
aI0
aI0
aI0
aI0
aa(lp90
I0
aI0
aI0
aI0
aI0
aI0
aI0
aI0
aa(lp91
I0
aI0
aI0
aI0
aI0
aI0
aI0
aI0
aaa(lp92
(lp93
I0
aI0
aI0
aI0
aI0
aI0
aI0
aI0
aa(lp94
I0
aI0
aI0
aI0
aI0
aI0
aI0
aI0
aa(lp95
I0
aI0
aI0
aI0
aI0
aI0
aI0
aI0
aa(lp96
I0
aI0
aI0
aI0
aI0
aI0
aI0
aI0
aa(lp97
I0
aI0
aI0
aI0
aI0
aI0
aI0
aI0
aa(lp98
I0
aI0
aI0
aI0
aI0
aI0
aI0
aI0
aa(lp99
I0
aI0
aI0
aI0
aI0
aI0
aI0
aI0
aa(lp100
I0
aI0
aI0
aI0
aI0
aI0
aI0
aI0
aaa(lp101
(lp102
I0
aI0
aI0
aI0
aI0
aI0
aI0
aI0
aa(lp103
I0
aI0
aI0
aI0
aI0
aI0
aI0
aI0
aa(lp104
I0
aI0
aI0
aI0
aI0
aI0
aI0
aI0
aa(lp105
I0
aI0
aI0
aI0
aI0
aI0
aI0
aI0
aa(lp106
I0
aI0
aI0
aI0
aI0
aI0
aI0
aI0
aa(lp107
I0
aI0
aI0
aI0
aI0
aI0
aI0
aI0
aa(lp108
I0
aI0
aI0
aI0
aI0
aI0
aI0
aI0
aa(lp109
I0
aI0
aI0
aI0
aI0
aI0
aI0
aI0
aaa(lp110
(lp111
I0
aI0
aI0
aI0
aI0
aI0
aI0
aI0
aa(lp112
I0
aI0
aI0
aI0
aI0
aI0
aI0
aI0
aa(lp113
I0
aI0
aI0
aI0
aI0
aI0
aI0
aI0
aa(lp114
I0
aI0
aI0
aI0
aI0
aI0
aI0
aI0
aa(lp115
I0
aI0
aI0
aI0
aI0
aI0
aI0
aI0
aa(lp116
I0
aI0
aI0
aI0
aI0
aI0
aI0
aI0
aa(lp117
I0
aI0
aI0
aI0
aI0
aI0
aI0
aI0
aa(lp118
I0
aI0
aI0
aI0
aI0
aI0
aI0
aI0
aaa(lp119
(lp120
I0
aI0
aI0
aI0
aI0
aI0
aI0
aI0
aa(lp121
I0
aI0
aI0
aI0
aI0
aI0
aI0
aI0
aa(lp122
I0
aI0
aI0
aI0
aI0
aI0
aI0
aI0
aa(lp123
I0
aI0
aI0
aI0
aI0
aI0
aI0
aI0
aa(lp124
I0
aI0
aI0
aI0
aI0
aI0
aI0
aI0
aa(lp125
I0
aI0
aI0
aI0
aI0
aI0
aI0
aI0
aa(lp126
I0
aI0
aI0
aI0
aI0
aI0
aI0
aI0
aa(lp127
I0
aI0
aI0
aI0
aI0
aI0
aI0
aI0
aaa(lp128
(lp129
I0
aI0
aI0
aI0
aI0
aI0
aI0
aI0
aa(lp130
I0
aI0
aI0
aI0
aI0
aI0
aI0
aI0
aa(lp131
I0
aI0
aI0
aI0
aI0
aI0
aI0
aI0
aa(lp132
I0
aI0
aI0
aI0
aI0
aI0
aI0
aI0
aa(lp133
I0
aI0
aI0
aI0
aI0
aI0
aI0
aI0
aa(lp134
I0
aI0
aI0
aI0
aI0
aI0
aI0
aI0
aa(lp135
I0
aI0
aI0
aI0
aI0
aI0
aI0
aI0
aa(lp136
I0
aI0
aI0
aI0
aI0
aI0
aI0
aI0
aaa(lp137
(lp138
I0
aI0
aI0
aI0
aI0
aI0
aI0
aI0
aa(lp139
I0
aI0
aI0
aI0
aI0
aI0
aI0
aI0
aa(lp140
I0
aI0
aI0
aI0
aI0
aI0
aI0
aI0
aa(lp141
I0
aI0
aI0
aI0
aI0
aI0
aI0
aI0
aa(lp142
I0
aI0
aI0
aI0
aI0
aI0
aI0
aI0
aa(lp143
I0
aI0
aI0
aI0
aI0
aI0
aI0
aI0
aa(lp144
I0
aI0
aI0
aI0
aI0
aI0
aI0
aI0
aa(lp145
I0
aI0
aI0
aI0
aI0
aI0
aI0
aI0
aaa(lp146
(lp147
I0
aI0
aI0
aI0
aI0
aI0
aI0
aI0
aa(lp148
I0
aI0
aI0
aI0
aI0
aI0
aI0
aI0
aa(lp149
I0
aI0
aI0
aI0
aI0
aI0
aI0
aI0
aa(lp150
I0
aI0
aI0
aI0
aI0
aI0
aI0
aI0
aa(lp151
I0
aI0
aI0
aI0
aI0
aI0
aI0
aI0
aa(lp152
I0
aI0
aI0
aI0
aI0
aI0
aI0
aI0
aa(lp153
I0
aI0
aI0
aI0
aI0
aI0
aI0
aI0
aa(lp154
I0
aI0
aI0
aI0
aI0
aI0
aI0
aI0
aaa(lp155
(lp156
I0
aI0
aI0
aI0
aI0
aI0
aI0
aI0
aa(lp157
I0
aI0
aI0
aI0
aI0
aI0
aI0
aI0
aa(lp158
I0
aI0
aI0
aI0
aI0
aI0
aI0
aI0
aa(lp159
I0
aI0
aI0
aI0
aI0
aI0
aI0
aI0
aa(lp160
I0
aI0
aI0
aI0
aI0
aI0
aI0
aI0
aa(lp161
I0
aI0
aI0
aI0
aI0
aI0
aI0
aI0
aa(lp162
I0
aI0
aI0
aI0
aI0
aI0
aI0
aI0
aa(lp163
I0
aI0
aI0
aI0
aI0
aI0
aI0
aI0
aaa(lp164
(lp165
I0
aI0
aI0
aI0
aI0
aI0
aI0
aI0
aa(lp166
I0
aI0
aI0
aI0
aI0
aI0
aI0
aI0
aa(lp167
I0
aI0
aI0
aI0
aI0
aI0
aI0
aI0
aa(lp168
I0
aI0
aI0
aI0
aI0
aI0
aI0
aI0
aa(lp169
I0
aI0
aI0
aI0
aI0
aI0
aI0
aI0
aa(lp170
I0
aI0
aI0
aI0
aI0
aI0
aI0
aI0
aa(lp171
I0
aI0
aI0
aI0
aI0
aI0
aI0
aI0
aa(lp172
I0
aI0
aI0
aI0
aI0
aI0
aI0
aI0
aaa(lp173
(lp174
I0
aI0
aI0
aI0
aI0
aI0
aI0
aI0
aa(lp175
I0
aI0
aI0
aI0
aI0
aI0
aI0
aI0
aa(lp176
I0
aI0
aI0
aI0
aI0
aI0
aI0
aI0
aa(lp177
I0
aI0
aI0
aI0
aI0
aI0
aI0
aI0
aa(lp178
I0
aI0
aI0
aI0
aI0
aI0
aI0
aI0
aa(lp179
I0
aI0
aI0
aI0
aI0
aI0
aI0
aI0
aa(lp180
I0
aI0
aI0
aI0
aI0
aI0
aI0
aI0
aa(lp181
I0
aI0
aI0
aI0
aI0
aI0
aI0
aI0
aaa(lp182
(lp183
I0
aI0
aI0
aI0
aI0
aI0
aI0
aI0
aa(lp184
I0
aI0
aI0
aI0
aI0
aI0
aI0
aI0
aa(lp185
I0
aI0
aI0
aI0
aI0
aI0
aI0
aI0
aa(lp186
I0
aI0
aI0
aI0
aI0
aI0
aI0
aI0
aa(lp187
I0
aI0
aI0
aI0
aI0
aI0
aI0
aI0
aa(lp188
I0
aI0
aI0
aI0
aI0
aI0
aI0
aI0
aa(lp189
I0
aI0
aI0
aI0
aI0
aI0
aI0
aI0
aa(lp190
I0
aI0
aI0
aI0
aI0
aI0
aI0
aI0
aaa(lp191
(lp192
I0
aI0
aI0
aI0
aI0
aI0
aI0
aI0
aa(lp193
I0
aI0
aI0
aI0
aI0
aI0
aI0
aI0
aa(lp194
I0
aI0
aI0
aI0
aI0
aI0
aI0
aI0
aa(lp195
I0
aI0
aI0
aI0
aI0
aI0
aI0
aI0
aa(lp196
I0
aI0
aI0
aI0
aI0
aI0
aI0
aI0
aa(lp197
I0
aI0
aI0
aI0
aI0
aI0
aI0
aI0
aa(lp198
I0
aI0
aI0
aI0
aI0
aI0
aI0
aI0
aa(lp199
I0
aI0
aI0
aI0
aI0
aI0
aI0
aI0
aaa(lp200
(lp201
I0
aI0
aI0
aI0
aI0
aI0
aI0
aI0
aa(lp202
I0
aI0
aI0
aI0
aI0
aI0
aI0
aI0
aa(lp203
I0
aI0
aI0
aI0
aI0
aI0
aI0
aI0
aa(lp204
I0
aI0
aI0
aI0
aI0
aI0
aI0
aI0
aa(lp205
I0
aI0
aI0
aI0
aI0
aI0
aI0
aI0
aa(lp206
I0
aI0
aI0
aI0
aI0
aI0
aI0
aI0
aa(lp207
I0
aI0
aI0
aI0
aI0
aI0
aI0
aI0
aa(lp208
I0
aI0
aI0
aI0
aI0
aI0
aI0
aI0
aaa(lp209
(lp210
I0
aI0
aI0
aI0
aI0
aI0
aI0
aI0
aa(lp211
I0
aI0
aI0
aI0
aI0
aI0
aI0
aI0
aa(lp212
I0
aI0
aI0
aI0
aI0
aI0
aI0
aI0
aa(lp213
I0
aI0
aI0
aI0
aI0
aI0
aI0
aI0
aa(lp214
I0
aI0
aI0
aI0
aI0
aI0
aI0
aI0
aa(lp215
I0
aI0
aI0
aI0
aI0
aI0
aI0
aI0
aa(lp216
I0
aI0
aI0
aI0
aI0
aI0
aI0
aI0
aa(lp217
I0
aI0
aI0
aI0
aI0
aI0
aI0
aI0
aaa(lp218
(lp219
I0
aI0
aI0
aI0
aI0
aI0
aI0
aI0
aa(lp220
I0
aI0
aI0
aI0
aI0
aI0
aI0
aI0
aa(lp221
I0
aI0
aI0
aI0
aI0
aI0
aI0
aI0
aa(lp222
I0
aI0
aI0
aI0
aI0
aI0
aI0
aI0
aa(lp223
I0
aI0
aI0
aI0
aI0
aI0
aI0
aI0
aa(lp224
I0
aI0
aI0
aI0
aI0
aI0
aI0
aI0
aa(lp225
I0
aI0
aI0
aI0
aI0
aI0
aI0
aI0
aa(lp226
I0
aI0
aI0
aI0
aI0
aI0
aI0
aI0
aaa(lp227
(lp228
I0
aI0
aI0
aI0
aI0
aI0
aI0
aI0
aa(lp229
I0
aI0
aI0
aI0
aI0
aI0
aI0
aI0
aa(lp230
I0
aI0
aI0
aI0
aI0
aI0
aI0
aI0
aa(lp231
I0
aI0
aI0
aI0
aI0
aI0
aI0
aI0
aa(lp232
I0
aI0
aI0
aI0
aI0
aI0
aI0
aI0
aa(lp233
I0
aI0
aI0
aI0
aI0
aI0
aI0
aI0
aa(lp234
I0
aI0
aI0
aI0
aI0
aI0
aI0
aI0
aa(lp235
I0
aI0
aI0
aI0
aI0
aI0
aI0
aI0
aaa(lp236
(lp237
I0
aI0
aI0
aI0
aI0
aI0
aI0
aI0
aa(lp238
I0
aI0
aI0
aI0
aI0
aI0
aI0
aI0
aa(lp239
I0
aI0
aI0
aI0
aI0
aI0
aI0
aI0
aa(lp240
I0
aI0
aI0
aI0
aI0
aI0
aI0
aI0
aa(lp241
I0
aI0
aI0
aI0
aI0
aI0
aI0
aI0
aa(lp242
I0
aI0
aI0
aI0
aI0
aI0
aI0
aI0
aa(lp243
I0
aI0
aI0
aI0
aI0
aI0
aI0
aI0
aa(lp244
I0
aI0
aI0
aI0
aI0
aI0
aI0
aI0
aaa(lp245
(lp246
I0
aI0
aI0
aI0
aI0
aI0
aI0
aI0
aa(lp247
I0
aI0
aI0
aI0
aI0
aI0
aI0
aI0
aa(lp248
I0
aI0
aI0
aI0
aI0
aI0
aI0
aI0
aa(lp249
I0
aI0
aI0
aI0
aI0
aI0
aI0
aI0
aa(lp250
I0
aI0
aI0
aI0
aI0
aI0
aI0
aI0
aa(lp251
I0
aI0
aI0
aI0
aI0
aI0
aI0
aI0
aa(lp252
I0
aI0
aI0
aI0
aI0
aI0
aI0
aI0
aa(lp253
I0
aI0
aI0
aI0
aI0
aI0
aI0
aI0
aaa(lp254
(lp255
I0
aI0
aI0
aI0
aI0
aI0
aI0
aI0
aa(lp256
I0
aI0
aI0
aI0
aI0
aI0
aI0
aI0
aa(lp257
I0
aI0
aI0
aI0
aI0
aI0
aI0
aI0
aa(lp258
I0
aI0
aI0
aI0
aI0
aI0
aI0
aI0
aa(lp259
I0
aI0
aI0
aI0
aI0
aI0
aI0
aI0
aa(lp260
I0
aI0
aI0
aI0
aI0
aI0
aI0
aI0
aa(lp261
I0
aI0
aI0
aI0
aI0
aI0
aI0
aI0
aa(lp262
I0
aI0
aI0
aI0
aI0
aI0
aI0
aI0
aaa(lp263
(lp264
I0
aI0
aI0
aI0
aI0
aI0
aI0
aI0
aa(lp265
I0
aI0
aI0
aI0
aI0
aI0
aI0
aI0
aa(lp266
I0
aI0
aI0
aI0
aI0
aI0
aI0
aI0
aa(lp267
I0
aI0
aI0
aI0
aI0
aI0
aI0
aI0
aa(lp268
I0
aI0
aI0
aI0
aI0
aI0
aI0
aI0
aa(lp269
I0
aI0
aI0
aI0
aI0
aI0
aI0
aI0
aa(lp270
I0
aI0
aI0
aI0
aI0
aI0
aI0
aI0
aa(lp271
I0
aI0
aI0
aI0
aI0
aI0
aI0
aI0
aaa(lp272
(lp273
I0
aI0
aI0
aI0
aI0
aI0
aI0
aI0
aa(lp274
I0
aI0
aI0
aI0
aI0
aI0
aI0
aI0
aa(lp275
I0
aI0
aI0
aI0
aI0
aI0
aI0
aI0
aa(lp276
I0
aI0
aI0
aI0
aI0
aI0
aI0
aI0
aa(lp277
I0
aI0
aI0
aI0
aI0
aI0
aI0
aI0
aa(lp278
I0
aI0
aI0
aI0
aI0
aI0
aI0
aI0
aa(lp279
I0
aI0
aI0
aI0
aI0
aI0
aI0
aI0
aa(lp280
I0
aI0
aI0
aI0
aI0
aI0
aI0
aI0
aaa(lp281
(lp282
I0
aI0
aI0
aI0
aI0
aI0
aI0
aI0
aa(lp283
I0
aI0
aI0
aI0
aI0
aI0
aI0
aI0
aa(lp284
I0
aI0
aI0
aI0
aI0
aI0
aI0
aI0
aa(lp285
I0
aI0
aI0
aI0
aI0
aI0
aI0
aI0
aa(lp286
I0
aI0
aI0
aI0
aI0
aI0
aI0
aI0
aa(lp287
I0
aI0
aI0
aI0
aI0
aI0
aI0
aI0
aa(lp288
I0
aI0
aI0
aI0
aI0
aI0
aI0
aI0
aa(lp289
I0
aI0
aI0
aI0
aI0
aI0
aI0
aI0
aaa(lp290
(lp291
I0
aI0
aI0
aI0
aI0
aI0
aI0
aI0
aa(lp292
I0
aI0
aI0
aI0
aI0
aI0
aI0
aI0
aa(lp293
I0
aI0
aI0
aI0
aI0
aI0
aI0
aI0
aa(lp294
I0
aI0
aI0
aI0
aI0
aI0
aI0
aI0
aa(lp295
I0
aI0
aI0
aI0
aI0
aI0
aI0
aI0
aa(lp296
I0
aI0
aI0
aI0
aI0
aI0
aI0
aI0
aa(lp297
I0
aI0
aI0
aI0
aI0
aI0
aI0
aI0
aa(lp298
I0
aI0
aI0
aI0
aI0
aI0
aI0
aI0
aaa(lp299
(lp300
I0
aI0
aI0
aI0
aI0
aI0
aI0
aI0
aa(lp301
I0
aI0
aI0
aI0
aI0
aI0
aI0
aI0
aa(lp302
I0
aI0
aI0
aI0
aI0
aI0
aI0
aI0
aa(lp303
I0
aI0
aI0
aI0
aI0
aI0
aI0
aI0
aa(lp304
I0
aI0
aI0
aI0
aI0
aI0
aI0
aI0
aa(lp305
I0
aI0
aI0
aI0
aI0
aI0
aI0
aI0
aa(lp306
I0
aI0
aI0
aI0
aI0
aI0
aI0
aI0
aa(lp307
I0
aI0
aI0
aI0
aI0
aI0
aI0
aI0
aaa(lp308
(lp309
I0
aI0
aI0
aI0
aI0
aI0
aI0
aI0
aa(lp310
I0
aI0
aI0
aI1
aI0
aI0
aI0
aI0
aa(lp311
I0
aI0
aI0
aI1
aI0
aI0
aI0
aI0
aa(lp312
I0
aI0
aI0
aI1
aI0
aI0
aI0
aI0
aa(lp313
I0
aI0
aI0
aI0
aI0
aI0
aI0
aI0
aa(lp314
I0
aI0
aI0
aI1
aI0
aI0
aI0
aI0
aa(lp315
I0
aI0
aI0
aI0
aI0
aI0
aI0
aI0
aa(lp316
I0
aI0
aI0
aI0
aI0
aI0
aI0
aI0
aaa(lp317
(lp318
I0
aI0
aI0
aI0
aI0
aI0
aI0
aI0
aa(lp319
I0
aI0
aI1
aI0
aI1
aI0
aI0
aI0
aa(lp320
I0
aI0
aI1
aI0
aI1
aI0
aI0
aI0
aa(lp321
I0
aI0
aI0
aI0
aI0
aI0
aI0
aI0
aa(lp322
I0
aI0
aI0
aI0
aI0
aI0
aI0
aI0
aa(lp323
I0
aI0
aI0
aI0
aI0
aI0
aI0
aI0
aa(lp324
I0
aI0
aI0
aI0
aI0
aI0
aI0
aI0
aa(lp325
I0
aI0
aI0
aI0
aI0
aI0
aI0
aI0
aaa(lp326
(lp327
I0
aI0
aI0
aI0
aI0
aI0
aI0
aI0
aa(lp328
I0
aI0
aI1
aI0
aI1
aI0
aI0
aI0
aa(lp329
I0
aI1
aI1
aI1
aI1
aI1
aI0
aI0
aa(lp330
I0
aI0
aI1
aI0
aI1
aI0
aI0
aI0
aa(lp331
I0
aI1
aI1
aI1
aI1
aI1
aI0
aI0
aa(lp332
I0
aI0
aI1
aI0
aI1
aI0
aI0
aI0
aa(lp333
I0
aI0
aI0
aI0
aI0
aI0
aI0
aI0
aa(lp334
I0
aI0
aI0
aI0
aI0
aI0
aI0
aI0
aaa(lp335
(lp336
I0
aI0
aI0
aI1
aI0
aI0
aI0
aI0
aa(lp337
I0
aI0
aI1
aI1
aI1
aI0
aI0
aI0
aa(lp338
I0
aI1
aI0
aI0
aI0
aI0
aI0
aI0
aa(lp339
I0
aI0
aI1
aI1
aI1
aI0
aI0
aI0
aa(lp340
I0
aI0
aI0
aI0
aI0
aI1
aI0
aI0
aa(lp341
I0
aI0
aI1
aI1
aI1
aI0
aI0
aI0
aa(lp342
I0
aI0
aI0
aI1
aI0
aI0
aI0
aI0
aa(lp343
I0
aI0
aI0
aI0
aI0
aI0
aI0
aI0
aaa(lp344
(lp345
I0
aI0
aI1
aI0
aI0
aI0
aI1
aI0
aa(lp346
I0
aI1
aI0
aI1
aI0
aI1
aI0
aI0
aa(lp347
I0
aI0
aI1
aI0
aI1
aI0
aI0
aI0
aa(lp348
I0
aI0
aI0
aI1
aI0
aI1
aI0
aI0
aa(lp349
I0
aI0
aI1
aI0
aI1
aI0
aI1
aI0
aa(lp350
I0
aI1
aI0
aI0
aI0
aI1
aI0
aI0
aa(lp351
I0
aI0
aI0
aI0
aI0
aI0
aI0
aI0
aa(lp352
I0
aI0
aI0
aI0
aI0
aI0
aI0
aI0
aaa(lp353
(lp354
I0
aI0
aI1
aI1
aI0
aI0
aI0
aI0
aa(lp355
I0
aI1
aI0
aI0
aI1
aI0
aI0
aI0
aa(lp356
I0
aI0
aI1
aI1
aI0
aI0
aI0
aI0
aa(lp357
I0
aI1
aI0
aI0
aI1
aI0
aI0
aI0
aa(lp358
I0
aI1
aI0
aI0
aI0
aI1
aI0
aI0
aa(lp359
I0
aI0
aI1
aI1
aI1
aI0
aI1
aI0
aa(lp360
I0
aI0
aI0
aI0
aI0
aI0
aI0
aI0
aa(lp361
I0
aI0
aI0
aI0
aI0
aI0
aI0
aI0
aaa(lp362
(lp363
I0
aI0
aI0
aI0
aI0
aI0
aI0
aI0
aa(lp364
I0
aI0
aI0
aI1
aI0
aI0
aI0
aI0
aa(lp365
I0
aI0
aI0
aI1
aI0
aI0
aI0
aI0
aa(lp366
I0
aI0
aI0
aI0
aI0
aI0
aI0
aI0
aa(lp367
I0
aI0
aI0
aI0
aI0
aI0
aI0
aI0
aa(lp368
I0
aI0
aI0
aI0
aI0
aI0
aI0
aI0
aa(lp369
I0
aI0
aI0
aI0
aI0
aI0
aI0
aI0
aa(lp370
I0
aI0
aI0
aI0
aI0
aI0
aI0
aI0
aaa(lp371
(lp372
I0
aI0
aI0
aI0
aI0
aI0
aI0
aI0
aa(lp373
I0
aI0
aI0
aI1
aI0
aI0
aI0
aI0
aa(lp374
I0
aI0
aI1
aI0
aI0
aI0
aI0
aI0
aa(lp375
I0
aI0
aI1
aI0
aI0
aI0
aI0
aI0
aa(lp376
I0
aI0
aI1
aI0
aI0
aI0
aI0
aI0
aa(lp377
I0
aI0
aI0
aI1
aI0
aI0
aI0
aI0
aa(lp378
I0
aI0
aI0
aI0
aI0
aI0
aI0
aI0
aa(lp379
I0
aI0
aI0
aI0
aI0
aI0
aI0
aI0
aaa(lp380
(lp381
I0
aI0
aI0
aI0
aI0
aI0
aI0
aI0
aa(lp382
I0
aI0
aI0
aI1
aI0
aI0
aI0
aI0
aa(lp383
I0
aI0
aI0
aI0
aI1
aI0
aI0
aI0
aa(lp384
I0
aI0
aI0
aI0
aI1
aI0
aI0
aI0
aa(lp385
I0
aI0
aI0
aI0
aI1
aI0
aI0
aI0
aa(lp386
I0
aI0
aI0
aI1
aI0
aI0
aI0
aI0
aa(lp387
I0
aI0
aI0
aI0
aI0
aI0
aI0
aI0
aa(lp388
I0
aI0
aI0
aI0
aI0
aI0
aI0
aI0
aaa(lp389
(lp390
I0
aI0
aI0
aI0
aI0
aI0
aI0
aI0
aa(lp391
I0
aI0
aI0
aI1
aI0
aI0
aI0
aI0
aa(lp392
I0
aI1
aI1
aI1
aI1
aI1
aI0
aI0
aa(lp393
I0
aI0
aI0
aI1
aI0
aI0
aI0
aI0
aa(lp394
I0
aI0
aI1
aI0
aI1
aI0
aI0
aI0
aa(lp395
I0
aI0
aI0
aI0
aI0
aI0
aI0
aI0
aa(lp396
I0
aI0
aI0
aI0
aI0
aI0
aI0
aI0
aa(lp397
I0
aI0
aI0
aI0
aI0
aI0
aI0
aI0
aaa(lp398
(lp399
I0
aI0
aI0
aI0
aI0
aI0
aI0
aI0
aa(lp400
I0
aI0
aI0
aI1
aI0
aI0
aI0
aI0
aa(lp401
I0
aI0
aI0
aI1
aI0
aI0
aI0
aI0
aa(lp402
I0
aI1
aI1
aI1
aI1
aI1
aI0
aI0
aa(lp403
I0
aI0
aI0
aI1
aI0
aI0
aI0
aI0
aa(lp404
I0
aI0
aI0
aI1
aI0
aI0
aI0
aI0
aa(lp405
I0
aI0
aI0
aI0
aI0
aI0
aI0
aI0
aa(lp406
I0
aI0
aI0
aI0
aI0
aI0
aI0
aI0
aaa(lp407
(lp408
I0
aI0
aI0
aI0
aI0
aI0
aI0
aI0
aa(lp409
I0
aI0
aI0
aI0
aI0
aI0
aI0
aI0
aa(lp410
I0
aI0
aI0
aI0
aI0
aI0
aI0
aI0
aa(lp411
I0
aI0
aI0
aI0
aI0
aI0
aI0
aI0
aa(lp412
I0
aI0
aI0
aI1
aI0
aI0
aI0
aI0
aa(lp413
I0
aI0
aI0
aI1
aI0
aI0
aI0
aI0
aa(lp414
I0
aI0
aI1
aI0
aI0
aI0
aI0
aI0
aa(lp415
I0
aI0
aI0
aI0
aI0
aI0
aI0
aI0
aaa(lp416
(lp417
I0
aI0
aI0
aI0
aI0
aI0
aI0
aI0
aa(lp418
I0
aI0
aI0
aI0
aI0
aI0
aI0
aI0
aa(lp419
I0
aI0
aI0
aI0
aI0
aI0
aI0
aI0
aa(lp420
I0
aI1
aI1
aI1
aI1
aI1
aI0
aI0
aa(lp421
I0
aI0
aI0
aI0
aI0
aI0
aI0
aI0
aa(lp422
I0
aI0
aI0
aI0
aI0
aI0
aI0
aI0
aa(lp423
I0
aI0
aI0
aI0
aI0
aI0
aI0
aI0
aa(lp424
I0
aI0
aI0
aI0
aI0
aI0
aI0
aI0
aaa(lp425
(lp426
I0
aI0
aI0
aI0
aI0
aI0
aI0
aI0
aa(lp427
I0
aI0
aI0
aI0
aI0
aI0
aI0
aI0
aa(lp428
I0
aI0
aI0
aI0
aI0
aI0
aI0
aI0
aa(lp429
I0
aI0
aI0
aI0
aI0
aI0
aI0
aI0
aa(lp430
I0
aI0
aI0
aI1
aI0
aI0
aI0
aI0
aa(lp431
I0
aI0
aI0
aI1
aI0
aI0
aI0
aI0
aa(lp432
I0
aI0
aI0
aI0
aI0
aI0
aI0
aI0
aa(lp433
I0
aI0
aI0
aI0
aI0
aI0
aI0
aI0
aaa(lp434
(lp435
I0
aI0
aI0
aI0
aI0
aI0
aI0
aI0
aa(lp436
I0
aI0
aI0
aI0
aI0
aI1
aI0
aI0
aa(lp437
I0
aI0
aI0
aI0
aI1
aI0
aI0
aI0
aa(lp438
I0
aI0
aI0
aI1
aI0
aI0
aI0
aI0
aa(lp439
I0
aI0
aI1
aI0
aI0
aI0
aI0
aI0
aa(lp440
I0
aI1
aI0
aI0
aI0
aI0
aI0
aI0
aa(lp441
I0
aI0
aI0
aI0
aI0
aI0
aI0
aI0
aa(lp442
I0
aI0
aI0
aI0
aI0
aI0
aI0
aI0
aaa(lp443
(lp444
I0
aI1
aI1
aI1
aI1
aI0
aI0
aI0
aa(lp445
I1
aI0
aI0
aI0
aI1
aI1
aI0
aI0
aa(lp446
I1
aI0
aI0
aI1
aI0
aI1
aI0
aI0
aa(lp447
I1
aI0
aI1
aI0
aI0
aI1
aI0
aI0
aa(lp448
I1
aI1
aI0
aI0
aI0
aI1
aI0
aI0
aa(lp449
I0
aI1
aI1
aI1
aI1
aI0
aI0
aI0
aa(lp450
I0
aI0
aI0
aI0
aI0
aI0
aI0
aI0
aa(lp451
I0
aI0
aI0
aI0
aI0
aI0
aI0
aI0
aaa(lp452
(lp453
I0
aI0
aI0
aI1
aI0
aI0
aI0
aI0
aa(lp454
I0
aI0
aI1
aI1
aI0
aI0
aI0
aI0
aa(lp455
I0
aI1
aI0
aI1
aI0
aI0
aI0
aI0
aa(lp456
I0
aI0
aI0
aI1
aI0
aI0
aI0
aI0
aa(lp457
I0
aI0
aI0
aI1
aI0
aI0
aI0
aI0
aa(lp458
I0
aI1
aI1
aI1
aI1
aI1
aI0
aI0
aa(lp459
I0
aI0
aI0
aI0
aI0
aI0
aI0
aI0
aa(lp460
I0
aI0
aI0
aI0
aI0
aI0
aI0
aI0
aaa(lp461
(lp462
I0
aI1
aI1
aI1
aI1
aI0
aI0
aI0
aa(lp463
I1
aI0
aI0
aI0
aI0
aI1
aI0
aI0
aa(lp464
I0
aI0
aI0
aI0
aI0
aI1
aI0
aI0
aa(lp465
I0
aI0
aI1
aI1
aI1
aI0
aI0
aI0
aa(lp466
I0
aI1
aI0
aI0
aI0
aI0
aI0
aI0
aa(lp467
I1
aI1
aI1
aI1
aI1
aI1
aI0
aI0
aa(lp468
I0
aI0
aI0
aI0
aI0
aI0
aI0
aI0
aa(lp469
I0
aI0
aI0
aI0
aI0
aI0
aI0
aI0
aaa(lp470
(lp471
I0
aI1
aI1
aI1
aI1
aI0
aI0
aI0
aa(lp472
I1
aI0
aI0
aI0
aI0
aI1
aI0
aI0
aa(lp473
I0
aI0
aI1
aI1
aI1
aI0
aI0
aI0
aa(lp474
I0
aI0
aI0
aI0
aI0
aI1
aI0
aI0
aa(lp475
I1
aI0
aI0
aI0
aI0
aI1
aI0
aI0
aa(lp476
I0
aI1
aI1
aI1
aI1
aI0
aI0
aI0
aa(lp477
I0
aI0
aI0
aI0
aI0
aI0
aI0
aI0
aa(lp478
I0
aI0
aI0
aI0
aI0
aI0
aI0
aI0
aaa(lp479
(lp480
I0
aI0
aI0
aI0
aI1
aI0
aI0
aI0
aa(lp481
I0
aI0
aI0
aI1
aI1
aI0
aI0
aI0
aa(lp482
I0
aI0
aI1
aI0
aI1
aI0
aI0
aI0
aa(lp483
I0
aI1
aI0
aI0
aI1
aI0
aI0
aI0
aa(lp484
I1
aI1
aI1
aI1
aI1
aI1
aI0
aI0
aa(lp485
I0
aI0
aI0
aI0
aI1
aI0
aI0
aI0
aa(lp486
I0
aI0
aI0
aI0
aI0
aI0
aI0
aI0
aa(lp487
I0
aI0
aI0
aI0
aI0
aI0
aI0
aI0
aaa(lp488
(lp489
I1
aI1
aI1
aI1
aI1
aI1
aI0
aI0
aa(lp490
I1
aI0
aI0
aI0
aI0
aI0
aI0
aI0
aa(lp491
I1
aI1
aI1
aI1
aI1
aI0
aI0
aI0
aa(lp492
I0
aI0
aI0
aI0
aI0
aI1
aI0
aI0
aa(lp493
I0
aI0
aI0
aI0
aI0
aI1
aI0
aI0
aa(lp494
I1
aI1
aI1
aI1
aI1
aI0
aI0
aI0
aa(lp495
I0
aI0
aI0
aI0
aI0
aI0
aI0
aI0
aa(lp496
I0
aI0
aI0
aI0
aI0
aI0
aI0
aI0
aaa(lp497
(lp498
I0
aI0
aI1
aI1
aI1
aI1
aI0
aI0
aa(lp499
I0
aI1
aI0
aI0
aI0
aI0
aI0
aI0
aa(lp500
I1
aI1
aI1
aI1
aI1
aI0
aI0
aI0
aa(lp501
I1
aI0
aI0
aI0
aI0
aI1
aI0
aI0
aa(lp502
I1
aI0
aI0
aI0
aI0
aI1
aI0
aI0
aa(lp503
I0
aI1
aI1
aI1
aI1
aI0
aI0
aI0
aa(lp504
I0
aI0
aI0
aI0
aI0
aI0
aI0
aI0
aa(lp505
I0
aI0
aI0
aI0
aI0
aI0
aI0
aI0
aaa(lp506
(lp507
I1
aI1
aI1
aI1
aI1
aI1
aI0
aI0
aa(lp508
I0
aI0
aI0
aI0
aI0
aI1
aI0
aI0
aa(lp509
I0
aI0
aI0
aI0
aI0
aI1
aI0
aI0
aa(lp510
I0
aI0
aI0
aI0
aI1
aI0
aI0
aI0
aa(lp511
I0
aI0
aI0
aI1
aI0
aI0
aI0
aI0
aa(lp512
I0
aI0
aI0
aI1
aI0
aI0
aI0
aI0
aa(lp513
I0
aI0
aI0
aI0
aI0
aI0
aI0
aI0
aa(lp514
I0
aI0
aI0
aI0
aI0
aI0
aI0
aI0
aaa(lp515
(lp516
I0
aI1
aI1
aI1
aI1
aI0
aI0
aI0
aa(lp517
I1
aI0
aI0
aI0
aI0
aI1
aI0
aI0
aa(lp518
I0
aI1
aI1
aI1
aI1
aI0
aI0
aI0
aa(lp519
I1
aI0
aI0
aI0
aI0
aI1
aI0
aI0
aa(lp520
I1
aI0
aI0
aI0
aI0
aI1
aI0
aI0
aa(lp521
I0
aI1
aI1
aI1
aI1
aI0
aI0
aI0
aa(lp522
I0
aI0
aI0
aI0
aI0
aI0
aI0
aI0
aa(lp523
I0
aI0
aI0
aI0
aI0
aI0
aI0
aI0
aaa(lp524
(lp525
I0
aI1
aI1
aI1
aI1
aI0
aI0
aI0
aa(lp526
I1
aI0
aI0
aI0
aI0
aI1
aI0
aI0
aa(lp527
I0
aI1
aI1
aI1
aI1
aI1
aI0
aI0
aa(lp528
I0
aI0
aI0
aI0
aI0
aI1
aI0
aI0
aa(lp529
I0
aI0
aI0
aI0
aI0
aI1
aI0
aI0
aa(lp530
I0
aI1
aI1
aI1
aI1
aI0
aI0
aI0
aa(lp531
I0
aI0
aI0
aI0
aI0
aI0
aI0
aI0
aa(lp532
I0
aI0
aI0
aI0
aI0
aI0
aI0
aI0
aaa(lp533
(lp534
I0
aI0
aI0
aI0
aI0
aI0
aI0
aI0
aa(lp535
I0
aI0
aI0
aI1
aI0
aI0
aI0
aI0
aa(lp536
I0
aI0
aI0
aI0
aI0
aI0
aI0
aI0
aa(lp537
I0
aI0
aI0
aI0
aI0
aI0
aI0
aI0
aa(lp538
I0
aI0
aI0
aI1
aI0
aI0
aI0
aI0
aa(lp539
I0
aI0
aI0
aI0
aI0
aI0
aI0
aI0
aa(lp540
I0
aI0
aI0
aI0
aI0
aI0
aI0
aI0
aa(lp541
I0
aI0
aI0
aI0
aI0
aI0
aI0
aI0
aaa(lp542
(lp543
I0
aI0
aI0
aI0
aI0
aI0
aI0
aI0
aa(lp544
I0
aI0
aI0
aI1
aI0
aI0
aI0
aI0
aa(lp545
I0
aI0
aI0
aI0
aI0
aI0
aI0
aI0
aa(lp546
I0
aI0
aI0
aI0
aI0
aI0
aI0
aI0
aa(lp547
I0
aI0
aI0
aI1
aI0
aI0
aI0
aI0
aa(lp548
I0
aI0
aI0
aI1
aI0
aI0
aI0
aI0
aa(lp549
I0
aI0
aI1
aI0
aI0
aI0
aI0
aI0
aa(lp550
I0
aI0
aI0
aI0
aI0
aI0
aI0
aI0
aaa(lp551
(lp552
I0
aI0
aI0
aI0
aI0
aI0
aI0
aI0
aa(lp553
I0
aI0
aI0
aI0
aI0
aI1
aI0
aI0
aa(lp554
I0
aI0
aI0
aI1
aI1
aI0
aI0
aI0
aa(lp555
I0
aI0
aI1
aI0
aI0
aI0
aI0
aI0
aa(lp556
I0
aI0
aI0
aI1
aI1
aI0
aI0
aI0
aa(lp557
I0
aI0
aI0
aI0
aI0
aI1
aI0
aI0
aa(lp558
I0
aI0
aI0
aI0
aI0
aI0
aI0
aI0
aa(lp559
I0
aI0
aI0
aI0
aI0
aI0
aI0
aI0
aaa(lp560
(lp561
I0
aI0
aI0
aI0
aI0
aI0
aI0
aI0
aa(lp562
I0
aI0
aI0
aI0
aI0
aI0
aI0
aI0
aa(lp563
I0
aI1
aI1
aI1
aI1
aI1
aI0
aI0
aa(lp564
I0
aI0
aI0
aI0
aI0
aI0
aI0
aI0
aa(lp565
I0
aI1
aI1
aI1
aI1
aI1
aI0
aI0
aa(lp566
I0
aI0
aI0
aI0
aI0
aI0
aI0
aI0
aa(lp567
I0
aI0
aI0
aI0
aI0
aI0
aI0
aI0
aa(lp568
I0
aI0
aI0
aI0
aI0
aI0
aI0
aI0
aaa(lp569
(lp570
I0
aI0
aI0
aI0
aI0
aI0
aI0
aI0
aa(lp571
I0
aI1
aI0
aI0
aI0
aI0
aI0
aI0
aa(lp572
I0
aI0
aI1
aI1
aI0
aI0
aI0
aI0
aa(lp573
I0
aI0
aI0
aI0
aI1
aI0
aI0
aI0
aa(lp574
I0
aI0
aI1
aI1
aI0
aI0
aI0
aI0
aa(lp575
I0
aI1
aI0
aI0
aI0
aI0
aI0
aI0
aa(lp576
I0
aI0
aI0
aI0
aI0
aI0
aI0
aI0
aa(lp577
I0
aI0
aI0
aI0
aI0
aI0
aI0
aI0
aaa(lp578
(lp579
I0
aI0
aI1
aI1
aI1
aI0
aI0
aI0
aa(lp580
I0
aI1
aI0
aI0
aI0
aI1
aI0
aI0
aa(lp581
I0
aI0
aI0
aI0
aI1
aI0
aI0
aI0
aa(lp582
I0
aI0
aI0
aI1
aI0
aI0
aI0
aI0
aa(lp583
I0
aI0
aI0
aI0
aI0
aI0
aI0
aI0
aa(lp584
I0
aI0
aI0
aI1
aI0
aI0
aI0
aI0
aa(lp585
I0
aI0
aI0
aI0
aI0
aI0
aI0
aI0
aa(lp586
I0
aI0
aI0
aI0
aI0
aI0
aI0
aI0
aaa(lp587
(lp588
I0
aI1
aI1
aI1
aI1
aI1
aI0
aI0
aa(lp589
I1
aI0
aI0
aI0
aI0
aI0
aI1
aI0
aa(lp590
I1
aI0
aI0
aI1
aI1
aI0
aI1
aI0
aa(lp591
I1
aI0
aI1
aI0
aI1
aI0
aI1
aI0
aa(lp592
I1
aI0
aI0
aI1
aI1
aI1
aI1
aI0
aa(lp593
I1
aI0
aI0
aI0
aI0
aI0
aI0
aI0
aa(lp594
I0
aI1
aI1
aI1
aI1
aI0
aI0
aI0
aa(lp595
I0
aI0
aI0
aI0
aI0
aI0
aI0
aI0
aaa(lp596
(lp597
I0
aI0
aI0
aI1
aI0
aI0
aI0
aI0
aa(lp598
I0
aI0
aI1
aI0
aI1
aI0
aI0
aI0
aa(lp599
I0
aI1
aI0
aI0
aI0
aI1
aI0
aI0
aa(lp600
I0
aI1
aI0
aI0
aI0
aI1
aI0
aI0
aa(lp601
I0
aI1
aI1
aI1
aI1
aI1
aI0
aI0
aa(lp602
I0
aI1
aI0
aI0
aI0
aI1
aI0
aI0
aa(lp603
I0
aI0
aI0
aI0
aI0
aI0
aI0
aI0
aa(lp604
I0
aI0
aI0
aI0
aI0
aI0
aI0
aI0
aaa(lp605
(lp606
I1
aI1
aI1
aI1
aI1
aI0
aI0
aI0
aa(lp607
I1
aI0
aI0
aI0
aI0
aI1
aI0
aI0
aa(lp608
I1
aI1
aI1
aI1
aI1
aI0
aI0
aI0
aa(lp609
I1
aI0
aI0
aI0
aI0
aI1
aI0
aI0
aa(lp610
I1
aI0
aI0
aI0
aI0
aI1
aI0
aI0
aa(lp611
I1
aI1
aI1
aI1
aI1
aI0
aI0
aI0
aa(lp612
I0
aI0
aI0
aI0
aI0
aI0
aI0
aI0
aa(lp613
I0
aI0
aI0
aI0
aI0
aI0
aI0
aI0
aaa(lp614
(lp615
I0
aI1
aI1
aI1
aI1
aI0
aI0
aI0
aa(lp616
I1
aI0
aI0
aI0
aI0
aI1
aI0
aI0
aa(lp617
I1
aI0
aI0
aI0
aI0
aI0
aI0
aI0
aa(lp618
I1
aI0
aI0
aI0
aI0
aI0
aI0
aI0
aa(lp619
I1
aI0
aI0
aI0
aI0
aI1
aI0
aI0
aa(lp620
I0
aI1
aI1
aI1
aI1
aI0
aI0
aI0
aa(lp621
I0
aI0
aI0
aI0
aI0
aI0
aI0
aI0
aa(lp622
I0
aI0
aI0
aI0
aI0
aI0
aI0
aI0
aaa(lp623
(lp624
I1
aI1
aI1
aI1
aI1
aI0
aI0
aI0
aa(lp625
I1
aI0
aI0
aI0
aI0
aI1
aI0
aI0
aa(lp626
I1
aI0
aI0
aI0
aI0
aI1
aI0
aI0
aa(lp627
I1
aI0
aI0
aI0
aI0
aI1
aI0
aI0
aa(lp628
I1
aI0
aI0
aI0
aI0
aI1
aI0
aI0
aa(lp629
I1
aI1
aI1
aI1
aI1
aI0
aI0
aI0
aa(lp630
I0
aI0
aI0
aI0
aI0
aI0
aI0
aI0
aa(lp631
I0
aI0
aI0
aI0
aI0
aI0
aI0
aI0
aaa(lp632
(lp633
I1
aI1
aI1
aI1
aI1
aI1
aI0
aI0
aa(lp634
I1
aI0
aI0
aI0
aI0
aI0
aI0
aI0
aa(lp635
I1
aI1
aI1
aI1
aI0
aI0
aI0
aI0
aa(lp636
I1
aI0
aI0
aI0
aI0
aI0
aI0
aI0
aa(lp637
I1
aI0
aI0
aI0
aI0
aI0
aI0
aI0
aa(lp638
I1
aI1
aI1
aI1
aI1
aI1
aI0
aI0
aa(lp639
I0
aI0
aI0
aI0
aI0
aI0
aI0
aI0
aa(lp640
I0
aI0
aI0
aI0
aI0
aI0
aI0
aI0
aaa(lp641
(lp642
I1
aI1
aI1
aI1
aI1
aI1
aI0
aI0
aa(lp643
I1
aI0
aI0
aI0
aI0
aI0
aI0
aI0
aa(lp644
I1
aI1
aI1
aI1
aI0
aI0
aI0
aI0
aa(lp645
I1
aI0
aI0
aI0
aI0
aI0
aI0
aI0
aa(lp646
I1
aI0
aI0
aI0
aI0
aI0
aI0
aI0
aa(lp647
I1
aI0
aI0
aI0
aI0
aI0
aI0
aI0
aa(lp648
I0
aI0
aI0
aI0
aI0
aI0
aI0
aI0
aa(lp649
I0
aI0
aI0
aI0
aI0
aI0
aI0
aI0
aaa(lp650
(lp651
I0
aI1
aI1
aI1
aI1
aI0
aI0
aI0
aa(lp652
I1
aI0
aI0
aI0
aI0
aI1
aI0
aI0
aa(lp653
I1
aI0
aI0
aI0
aI0
aI0
aI0
aI0
aa(lp654
I1
aI0
aI0
aI1
aI1
aI1
aI0
aI0
aa(lp655
I1
aI0
aI0
aI0
aI0
aI1
aI0
aI0
aa(lp656
I0
aI1
aI1
aI1
aI1
aI1
aI0
aI0
aa(lp657
I0
aI0
aI0
aI0
aI0
aI0
aI0
aI0
aa(lp658
I0
aI0
aI0
aI0
aI0
aI0
aI0
aI0
aaa(lp659
(lp660
I1
aI0
aI0
aI0
aI0
aI1
aI0
aI0
aa(lp661
I1
aI0
aI0
aI0
aI0
aI1
aI0
aI0
aa(lp662
I1
aI1
aI1
aI1
aI1
aI1
aI0
aI0
aa(lp663
I1
aI0
aI0
aI0
aI0
aI1
aI0
aI0
aa(lp664
I1
aI0
aI0
aI0
aI0
aI1
aI0
aI0
aa(lp665
I1
aI0
aI0
aI0
aI0
aI1
aI0
aI0
aa(lp666
I0
aI0
aI0
aI0
aI0
aI0
aI0
aI0
aa(lp667
I0
aI0
aI0
aI0
aI0
aI0
aI0
aI0
aaa(lp668
(lp669
I0
aI1
aI1
aI1
aI1
aI1
aI0
aI0
aa(lp670
I0
aI0
aI0
aI1
aI0
aI0
aI0
aI0
aa(lp671
I0
aI0
aI0
aI1
aI0
aI0
aI0
aI0
aa(lp672
I0
aI0
aI0
aI1
aI0
aI0
aI0
aI0
aa(lp673
I0
aI0
aI0
aI1
aI0
aI0
aI0
aI0
aa(lp674
I0
aI1
aI1
aI1
aI1
aI1
aI0
aI0
aa(lp675
I0
aI0
aI0
aI0
aI0
aI0
aI0
aI0
aa(lp676
I0
aI0
aI0
aI0
aI0
aI0
aI0
aI0
aaa(lp677
(lp678
I0
aI1
aI1
aI1
aI1
aI1
aI0
aI0
aa(lp679
I0
aI0
aI0
aI0
aI0
aI1
aI0
aI0
aa(lp680
I0
aI0
aI0
aI0
aI0
aI1
aI0
aI0
aa(lp681
I0
aI0
aI0
aI0
aI0
aI1
aI0
aI0
aa(lp682
I0
aI1
aI0
aI0
aI0
aI1
aI0
aI0
aa(lp683
I0
aI0
aI1
aI1
aI1
aI0
aI0
aI0
aa(lp684
I0
aI0
aI0
aI0
aI0
aI0
aI0
aI0
aa(lp685
I0
aI0
aI0
aI0
aI0
aI0
aI0
aI0
aaa(lp686
(lp687
I1
aI0
aI0
aI0
aI0
aI0
aI0
aI0
aa(lp688
I1
aI0
aI0
aI0
aI1
aI0
aI0
aI0
aa(lp689
I1
aI1
aI0
aI1
aI0
aI0
aI0
aI0
aa(lp690
I1
aI0
aI1
aI0
aI0
aI0
aI0
aI0
aa(lp691
I1
aI0
aI0
aI1
aI0
aI0
aI0
aI0
aa(lp692
I1
aI0
aI0
aI0
aI1
aI0
aI0
aI0
aa(lp693
I0
aI0
aI0
aI0
aI0
aI0
aI0
aI0
aa(lp694
I0
aI0
aI0
aI0
aI0
aI0
aI0
aI0
aaa(lp695
(lp696
I1
aI0
aI0
aI0
aI0
aI0
aI0
aI0
aa(lp697
I1
aI0
aI0
aI0
aI0
aI0
aI0
aI0
aa(lp698
I1
aI0
aI0
aI0
aI0
aI0
aI0
aI0
aa(lp699
I1
aI0
aI0
aI0
aI0
aI0
aI0
aI0
aa(lp700
I1
aI0
aI0
aI0
aI0
aI0
aI0
aI0
aa(lp701
I1
aI1
aI1
aI1
aI1
aI1
aI0
aI0
aa(lp702
I0
aI0
aI0
aI0
aI0
aI0
aI0
aI0
aa(lp703
I0
aI0
aI0
aI0
aI0
aI0
aI0
aI0
aaa(lp704
(lp705
I1
aI0
aI0
aI0
aI0
aI1
aI0
aI0
aa(lp706
I1
aI1
aI0
aI0
aI1
aI1
aI0
aI0
aa(lp707
I1
aI0
aI1
aI1
aI0
aI1
aI0
aI0
aa(lp708
I1
aI0
aI0
aI0
aI0
aI1
aI0
aI0
aa(lp709
I1
aI0
aI0
aI0
aI0
aI1
aI0
aI0
aa(lp710
I1
aI0
aI0
aI0
aI0
aI1
aI0
aI0
aa(lp711
I0
aI0
aI0
aI0
aI0
aI0
aI0
aI0
aa(lp712
I0
aI0
aI0
aI0
aI0
aI0
aI0
aI0
aaa(lp713
(lp714
I1
aI0
aI0
aI0
aI0
aI1
aI0
aI0
aa(lp715
I1
aI1
aI0
aI0
aI0
aI1
aI0
aI0
aa(lp716
I1
aI0
aI1
aI0
aI0
aI1
aI0
aI0
aa(lp717
I1
aI0
aI0
aI1
aI0
aI1
aI0
aI0
aa(lp718
I1
aI0
aI0
aI0
aI1
aI1
aI0
aI0
aa(lp719
I1
aI0
aI0
aI0
aI0
aI1
aI0
aI0
aa(lp720
I0
aI0
aI0
aI0
aI0
aI0
aI0
aI0
aa(lp721
I0
aI0
aI0
aI0
aI0
aI0
aI0
aI0
aaa(lp722
(lp723
I0
aI1
aI1
aI1
aI1
aI0
aI0
aI0
aa(lp724
I1
aI0
aI0
aI0
aI0
aI1
aI0
aI0
aa(lp725
I1
aI0
aI0
aI0
aI0
aI1
aI0
aI0
aa(lp726
I1
aI0
aI0
aI0
aI0
aI1
aI0
aI0
aa(lp727
I1
aI0
aI0
aI0
aI0
aI1
aI0
aI0
aa(lp728
I0
aI1
aI1
aI1
aI1
aI0
aI0
aI0
aa(lp729
I0
aI0
aI0
aI0
aI0
aI0
aI0
aI0
aa(lp730
I0
aI0
aI0
aI0
aI0
aI0
aI0
aI0
aaa(lp731
(lp732
I1
aI1
aI1
aI1
aI1
aI0
aI0
aI0
aa(lp733
I1
aI0
aI0
aI0
aI0
aI1
aI0
aI0
aa(lp734
I1
aI0
aI0
aI0
aI0
aI1
aI0
aI0
aa(lp735
I1
aI1
aI1
aI1
aI1
aI0
aI0
aI0
aa(lp736
I1
aI0
aI0
aI0
aI0
aI0
aI0
aI0
aa(lp737
I1
aI0
aI0
aI0
aI0
aI0
aI0
aI0
aa(lp738
I0
aI0
aI0
aI0
aI0
aI0
aI0
aI0
aa(lp739
I0
aI0
aI0
aI0
aI0
aI0
aI0
aI0
aaa(lp740
(lp741
I0
aI1
aI1
aI1
aI1
aI0
aI0
aI0
aa(lp742
I1
aI0
aI0
aI0
aI0
aI1
aI0
aI0
aa(lp743
I1
aI0
aI0
aI0
aI0
aI1
aI0
aI0
aa(lp744
I1
aI0
aI0
aI0
aI0
aI1
aI0
aI0
aa(lp745
I1
aI0
aI0
aI0
aI1
aI0
aI0
aI0
aa(lp746
I0
aI1
aI1
aI1
aI0
aI1
aI0
aI0
aa(lp747
I0
aI0
aI0
aI0
aI0
aI0
aI0
aI0
aa(lp748
I0
aI0
aI0
aI0
aI0
aI0
aI0
aI0
aaa(lp749
(lp750
I1
aI1
aI1
aI1
aI1
aI0
aI0
aI0
aa(lp751
I1
aI0
aI0
aI0
aI0
aI1
aI0
aI0
aa(lp752
I1
aI0
aI0
aI0
aI0
aI1
aI0
aI0
aa(lp753
I1
aI1
aI1
aI1
aI1
aI0
aI0
aI0
aa(lp754
I1
aI0
aI0
aI0
aI1
aI0
aI0
aI0
aa(lp755
I1
aI0
aI0
aI0
aI0
aI1
aI0
aI0
aa(lp756
I0
aI0
aI0
aI0
aI0
aI0
aI0
aI0
aa(lp757
I0
aI0
aI0
aI0
aI0
aI0
aI0
aI0
aaa(lp758
(lp759
I0
aI1
aI1
aI1
aI1
aI1
aI0
aI0
aa(lp760
I1
aI0
aI0
aI0
aI0
aI0
aI0
aI0
aa(lp761
I0
aI1
aI1
aI1
aI1
aI0
aI0
aI0
aa(lp762
I0
aI0
aI0
aI0
aI0
aI1
aI0
aI0
aa(lp763
I0
aI0
aI0
aI0
aI0
aI1
aI0
aI0
aa(lp764
I1
aI1
aI1
aI1
aI1
aI0
aI0
aI0
aa(lp765
I0
aI0
aI0
aI0
aI0
aI0
aI0
aI0
aa(lp766
I0
aI0
aI0
aI0
aI0
aI0
aI0
aI0
aaa(lp767
(lp768
I1
aI1
aI1
aI1
aI1
aI1
aI1
aI0
aa(lp769
I0
aI0
aI0
aI1
aI0
aI0
aI0
aI0
aa(lp770
I0
aI0
aI0
aI1
aI0
aI0
aI0
aI0
aa(lp771
I0
aI0
aI0
aI1
aI0
aI0
aI0
aI0
aa(lp772
I0
aI0
aI0
aI1
aI0
aI0
aI0
aI0
aa(lp773
I0
aI0
aI0
aI1
aI0
aI0
aI0
aI0
aa(lp774
I0
aI0
aI0
aI0
aI0
aI0
aI0
aI0
aa(lp775
I0
aI0
aI0
aI0
aI0
aI0
aI0
aI0
aaa(lp776
(lp777
I1
aI0
aI0
aI0
aI0
aI1
aI0
aI0
aa(lp778
I1
aI0
aI0
aI0
aI0
aI1
aI0
aI0
aa(lp779
I1
aI0
aI0
aI0
aI0
aI1
aI0
aI0
aa(lp780
I1
aI0
aI0
aI0
aI0
aI1
aI0
aI0
aa(lp781
I1
aI0
aI0
aI0
aI0
aI1
aI0
aI0
aa(lp782
I0
aI1
aI1
aI1
aI1
aI0
aI0
aI0
aa(lp783
I0
aI0
aI0
aI0
aI0
aI0
aI0
aI0
aa(lp784
I0
aI0
aI0
aI0
aI0
aI0
aI0
aI0
aaa(lp785
(lp786
I1
aI0
aI0
aI0
aI0
aI1
aI0
aI0
aa(lp787
I1
aI0
aI0
aI0
aI0
aI1
aI0
aI0
aa(lp788
I1
aI0
aI0
aI0
aI0
aI1
aI0
aI0
aa(lp789
I1
aI0
aI0
aI0
aI0
aI1
aI0
aI0
aa(lp790
I0
aI1
aI0
aI0
aI1
aI0
aI0
aI0
aa(lp791
I0
aI0
aI1
aI1
aI0
aI0
aI0
aI0
aa(lp792
I0
aI0
aI0
aI0
aI0
aI0
aI0
aI0
aa(lp793
I0
aI0
aI0
aI0
aI0
aI0
aI0
aI0
aaa(lp794
(lp795
I1
aI0
aI0
aI0
aI0
aI1
aI0
aI0
aa(lp796
I1
aI0
aI0
aI0
aI0
aI1
aI0
aI0
aa(lp797
I1
aI0
aI0
aI0
aI0
aI1
aI0
aI0
aa(lp798
I1
aI0
aI1
aI1
aI0
aI1
aI0
aI0
aa(lp799
I1
aI1
aI0
aI0
aI1
aI1
aI0
aI0
aa(lp800
I1
aI0
aI0
aI0
aI0
aI1
aI0
aI0
aa(lp801
I0
aI0
aI0
aI0
aI0
aI0
aI0
aI0
aa(lp802
I0
aI0
aI0
aI0
aI0
aI0
aI0
aI0
aaa(lp803
(lp804
I1
aI0
aI0
aI0
aI0
aI1
aI0
aI0
aa(lp805
I0
aI1
aI0
aI0
aI1
aI0
aI0
aI0
aa(lp806
I0
aI0
aI1
aI1
aI0
aI0
aI0
aI0
aa(lp807
I0
aI0
aI1
aI1
aI0
aI0
aI0
aI0
aa(lp808
I0
aI1
aI0
aI0
aI1
aI0
aI0
aI0
aa(lp809
I1
aI0
aI0
aI0
aI0
aI1
aI0
aI0
aa(lp810
I0
aI0
aI0
aI0
aI0
aI0
aI0
aI0
aa(lp811
I0
aI0
aI0
aI0
aI0
aI0
aI0
aI0
aaa(lp812
(lp813
I1
aI0
aI0
aI0
aI0
aI0
aI1
aI0
aa(lp814
I0
aI1
aI0
aI0
aI0
aI1
aI0
aI0
aa(lp815
I0
aI0
aI1
aI0
aI1
aI0
aI0
aI0
aa(lp816
I0
aI0
aI0
aI1
aI0
aI0
aI0
aI0
aa(lp817
I0
aI0
aI0
aI1
aI0
aI0
aI0
aI0
aa(lp818
I0
aI0
aI0
aI1
aI0
aI0
aI0
aI0
aa(lp819
I0
aI0
aI0
aI0
aI0
aI0
aI0
aI0
aa(lp820
I0
aI0
aI0
aI0
aI0
aI0
aI0
aI0
aaa(lp821
(lp822
I1
aI1
aI1
aI1
aI1
aI1
aI0
aI0
aa(lp823
I0
aI0
aI0
aI0
aI1
aI0
aI0
aI0
aa(lp824
I0
aI0
aI0
aI1
aI0
aI0
aI0
aI0
aa(lp825
I0
aI0
aI1
aI0
aI0
aI0
aI0
aI0
aa(lp826
I0
aI1
aI0
aI0
aI0
aI0
aI0
aI0
aa(lp827
I1
aI1
aI1
aI1
aI1
aI1
aI0
aI0
aa(lp828
I0
aI0
aI0
aI0
aI0
aI0
aI0
aI0
aa(lp829
I0
aI0
aI0
aI0
aI0
aI0
aI0
aI0
aaa(lp830
(lp831
I0
aI0
aI1
aI1
aI1
aI0
aI0
aI0
aa(lp832
I0
aI0
aI1
aI0
aI0
aI0
aI0
aI0
aa(lp833
I0
aI0
aI1
aI0
aI0
aI0
aI0
aI0
aa(lp834
I0
aI0
aI1
aI0
aI0
aI0
aI0
aI0
aa(lp835
I0
aI0
aI1
aI0
aI0
aI0
aI0
aI0
aa(lp836
I0
aI0
aI1
aI1
aI1
aI0
aI0
aI0
aa(lp837
I0
aI0
aI0
aI0
aI0
aI0
aI0
aI0
aa(lp838
I0
aI0
aI0
aI0
aI0
aI0
aI0
aI0
aaa(lp839
(lp840
I0
aI0
aI0
aI0
aI0
aI0
aI0
aI0
aa(lp841
I0
aI1
aI0
aI0
aI0
aI0
aI0
aI0
aa(lp842
I0
aI0
aI1
aI0
aI0
aI0
aI0
aI0
aa(lp843
I0
aI0
aI0
aI1
aI0
aI0
aI0
aI0
aa(lp844
I0
aI0
aI0
aI0
aI1
aI0
aI0
aI0
aa(lp845
I0
aI0
aI0
aI0
aI0
aI1
aI0
aI0
aa(lp846
I0
aI0
aI0
aI0
aI0
aI0
aI0
aI0
aa(lp847
I0
aI0
aI0
aI0
aI0
aI0
aI0
aI0
aaa(lp848
(lp849
I0
aI0
aI1
aI1
aI1
aI0
aI0
aI0
aa(lp850
I0
aI0
aI0
aI0
aI1
aI0
aI0
aI0
aa(lp851
I0
aI0
aI0
aI0
aI1
aI0
aI0
aI0
aa(lp852
I0
aI0
aI0
aI0
aI1
aI0
aI0
aI0
aa(lp853
I0
aI0
aI0
aI0
aI1
aI0
aI0
aI0
aa(lp854
I0
aI0
aI1
aI1
aI1
aI0
aI0
aI0
aa(lp855
I0
aI0
aI0
aI0
aI0
aI0
aI0
aI0
aa(lp856
I0
aI0
aI0
aI0
aI0
aI0
aI0
aI0
aaa(lp857
(lp858
I0
aI0
aI0
aI1
aI0
aI0
aI0
aI0
aa(lp859
I0
aI0
aI1
aI0
aI1
aI0
aI0
aI0
aa(lp860
I0
aI1
aI0
aI0
aI0
aI1
aI0
aI0
aa(lp861
I0
aI0
aI0
aI0
aI0
aI0
aI0
aI0
aa(lp862
I0
aI0
aI0
aI0
aI0
aI0
aI0
aI0
aa(lp863
I0
aI0
aI0
aI0
aI0
aI0
aI0
aI0
aa(lp864
I0
aI0
aI0
aI0
aI0
aI0
aI0
aI0
aa(lp865
I0
aI0
aI0
aI0
aI0
aI0
aI0
aI0
aaa(lp866
(lp867
I0
aI0
aI0
aI0
aI0
aI0
aI0
aI0
aa(lp868
I0
aI0
aI0
aI0
aI0
aI0
aI0
aI0
aa(lp869
I0
aI0
aI0
aI0
aI0
aI0
aI0
aI0
aa(lp870
I0
aI0
aI0
aI0
aI0
aI0
aI0
aI0
aa(lp871
I0
aI0
aI0
aI0
aI0
aI0
aI0
aI0
aa(lp872
I0
aI0
aI0
aI0
aI0
aI0
aI0
aI0
aa(lp873
I1
aI1
aI1
aI1
aI1
aI1
aI1
aI0
aa(lp874
I0
aI0
aI0
aI0
aI0
aI0
aI0
aI0
aaa(lp875
(lp876
I0
aI0
aI1
aI0
aI0
aI0
aI0
aI0
aa(lp877
I0
aI0
aI0
aI1
aI0
aI0
aI0
aI0
aa(lp878
I0
aI0
aI0
aI0
aI0
aI0
aI0
aI0
aa(lp879
I0
aI0
aI0
aI0
aI0
aI0
aI0
aI0
aa(lp880
I0
aI0
aI0
aI0
aI0
aI0
aI0
aI0
aa(lp881
I0
aI0
aI0
aI0
aI0
aI0
aI0
aI0
aa(lp882
I0
aI0
aI0
aI0
aI0
aI0
aI0
aI0
aa(lp883
I0
aI0
aI0
aI0
aI0
aI0
aI0
aI0
aaa(lp884
(lp885
I0
aI0
aI0
aI0
aI0
aI0
aI0
aI0
aa(lp886
I0
aI0
aI1
aI1
aI1
aI0
aI0
aI0
aa(lp887
I0
aI0
aI0
aI0
aI0
aI1
aI0
aI0
aa(lp888
I0
aI0
aI1
aI1
aI1
aI1
aI0
aI0
aa(lp889
I0
aI1
aI0
aI0
aI0
aI1
aI0
aI0
aa(lp890
I0
aI0
aI1
aI1
aI1
aI1
aI0
aI0
aa(lp891
I0
aI0
aI0
aI0
aI0
aI0
aI0
aI0
aa(lp892
I0
aI0
aI0
aI0
aI0
aI0
aI0
aI0
aaa(lp893
(lp894
I0
aI0
aI0
aI0
aI0
aI0
aI0
aI0
aa(lp895
I0
aI1
aI0
aI0
aI0
aI0
aI0
aI0
aa(lp896
I0
aI1
aI0
aI0
aI0
aI0
aI0
aI0
aa(lp897
I0
aI1
aI1
aI1
aI0
aI0
aI0
aI0
aa(lp898
I0
aI1
aI0
aI0
aI1
aI0
aI0
aI0
aa(lp899
I0
aI1
aI1
aI1
aI0
aI0
aI0
aI0
aa(lp900
I0
aI0
aI0
aI0
aI0
aI0
aI0
aI0
aa(lp901
I0
aI0
aI0
aI0
aI0
aI0
aI0
aI0
aaa(lp902
(lp903
I0
aI0
aI0
aI0
aI0
aI0
aI0
aI0
aa(lp904
I0
aI0
aI0
aI0
aI0
aI0
aI0
aI0
aa(lp905
I0
aI0
aI0
aI0
aI0
aI0
aI0
aI0
aa(lp906
I0
aI0
aI1
aI1
aI0
aI0
aI0
aI0
aa(lp907
I0
aI1
aI0
aI0
aI0
aI0
aI0
aI0
aa(lp908
I0
aI0
aI1
aI1
aI0
aI0
aI0
aI0
aa(lp909
I0
aI0
aI0
aI0
aI0
aI0
aI0
aI0
aa(lp910
I0
aI0
aI0
aI0
aI0
aI0
aI0
aI0
aaa(lp911
(lp912
I0
aI0
aI0
aI0
aI0
aI0
aI0
aI0
aa(lp913
I0
aI0
aI0
aI0
aI1
aI0
aI0
aI0
aa(lp914
I0
aI0
aI0
aI0
aI1
aI0
aI0
aI0
aa(lp915
I0
aI0
aI1
aI1
aI1
aI0
aI0
aI0
aa(lp916
I0
aI1
aI0
aI0
aI1
aI0
aI0
aI0
aa(lp917
I0
aI0
aI1
aI1
aI1
aI0
aI0
aI0
aa(lp918
I0
aI0
aI0
aI0
aI0
aI0
aI0
aI0
aa(lp919
I0
aI0
aI0
aI0
aI0
aI0
aI0
aI0
aaa(lp920
(lp921
I0
aI0
aI0
aI0
aI0
aI0
aI0
aI0
aa(lp922
I0
aI0
aI1
aI1
aI1
aI0
aI0
aI0
aa(lp923
I0
aI1
aI0
aI0
aI0
aI1
aI0
aI0
aa(lp924
I0
aI1
aI1
aI1
aI1
aI1
aI0
aI0
aa(lp925
I0
aI1
aI0
aI0
aI0
aI0
aI0
aI0
aa(lp926
I0
aI0
aI1
aI1
aI1
aI1
aI0
aI0
aa(lp927
I0
aI0
aI0
aI0
aI0
aI0
aI0
aI0
aa(lp928
I0
aI0
aI0
aI0
aI0
aI0
aI0
aI0
aaa(lp929
(lp930
I0
aI0
aI0
aI0
aI0
aI0
aI0
aI0
aa(lp931
I0
aI0
aI1
aI1
aI0
aI0
aI0
aI0
aa(lp932
I0
aI1
aI0
aI0
aI0
aI0
aI0
aI0
aa(lp933
I0
aI1
aI1
aI0
aI0
aI0
aI0
aI0
aa(lp934
I0
aI1
aI0
aI0
aI0
aI0
aI0
aI0
aa(lp935
I0
aI1
aI0
aI0
aI0
aI0
aI0
aI0
aa(lp936
I0
aI0
aI0
aI0
aI0
aI0
aI0
aI0
aa(lp937
I0
aI0
aI0
aI0
aI0
aI0
aI0
aI0
aaa(lp938
(lp939
I0
aI0
aI0
aI0
aI0
aI0
aI0
aI0
aa(lp940
I0
aI0
aI0
aI0
aI0
aI0
aI0
aI0
aa(lp941
I0
aI0
aI1
aI1
aI1
aI1
aI0
aI0
aa(lp942
I0
aI1
aI0
aI0
aI0
aI1
aI0
aI0
aa(lp943
I0
aI0
aI1
aI1
aI1
aI1
aI0
aI0
aa(lp944
I0
aI0
aI0
aI0
aI0
aI1
aI0
aI0
aa(lp945
I0
aI0
aI1
aI1
aI1
aI0
aI0
aI0
aa(lp946
I0
aI0
aI0
aI0
aI0
aI0
aI0
aI0
aaa(lp947
(lp948
I0
aI0
aI0
aI0
aI0
aI0
aI0
aI0
aa(lp949
I0
aI1
aI0
aI0
aI0
aI0
aI0
aI0
aa(lp950
I0
aI1
aI0
aI0
aI0
aI0
aI0
aI0
aa(lp951
I0
aI1
aI1
aI1
aI1
aI0
aI0
aI0
aa(lp952
I0
aI1
aI0
aI0
aI0
aI1
aI0
aI0
aa(lp953
I0
aI1
aI0
aI0
aI0
aI1
aI0
aI0
aa(lp954
I0
aI0
aI0
aI0
aI0
aI0
aI0
aI0
aa(lp955
I0
aI0
aI0
aI0
aI0
aI0
aI0
aI0
aaa(lp956
(lp957
I0
aI0
aI0
aI0
aI0
aI0
aI0
aI0
aa(lp958
I0
aI0
aI0
aI1
aI0
aI0
aI0
aI0
aa(lp959
I0
aI0
aI0
aI0
aI0
aI0
aI0
aI0
aa(lp960
I0
aI0
aI0
aI1
aI0
aI0
aI0
aI0
aa(lp961
I0
aI0
aI0
aI1
aI0
aI0
aI0
aI0
aa(lp962
I0
aI0
aI1
aI1
aI1
aI0
aI0
aI0
aa(lp963
I0
aI0
aI0
aI0
aI0
aI0
aI0
aI0
aa(lp964
I0
aI0
aI0
aI0
aI0
aI0
aI0
aI0
aaa(lp965
(lp966
I0
aI0
aI0
aI0
aI0
aI0
aI0
aI0
aa(lp967
I0
aI0
aI0
aI1
aI0
aI0
aI0
aI0
aa(lp968
I0
aI0
aI0
aI0
aI0
aI0
aI0
aI0
aa(lp969
I0
aI0
aI0
aI1
aI0
aI0
aI0
aI0
aa(lp970
I0
aI0
aI0
aI1
aI0
aI0
aI0
aI0
aa(lp971
I0
aI0
aI0
aI1
aI0
aI0
aI0
aI0
aa(lp972
I0
aI0
aI1
aI0
aI0
aI0
aI0
aI0
aa(lp973
I0
aI0
aI0
aI0
aI0
aI0
aI0
aI0
aaa(lp974
(lp975
I0
aI0
aI0
aI0
aI0
aI0
aI0
aI0
aa(lp976
I0
aI1
aI0
aI0
aI0
aI0
aI0
aI0
aa(lp977
I0
aI1
aI0
aI0
aI1
aI0
aI0
aI0
aa(lp978
I0
aI1
aI1
aI1
aI0
aI0
aI0
aI0
aa(lp979
I0
aI1
aI0
aI1
aI0
aI0
aI0
aI0
aa(lp980
I0
aI1
aI0
aI0
aI1
aI0
aI0
aI0
aa(lp981
I0
aI0
aI0
aI0
aI0
aI0
aI0
aI0
aa(lp982
I0
aI0
aI0
aI0
aI0
aI0
aI0
aI0
aaa(lp983
(lp984
I0
aI0
aI0
aI0
aI0
aI0
aI0
aI0
aa(lp985
I0
aI0
aI1
aI1
aI0
aI0
aI0
aI0
aa(lp986
I0
aI0
aI0
aI1
aI0
aI0
aI0
aI0
aa(lp987
I0
aI0
aI0
aI1
aI0
aI0
aI0
aI0
aa(lp988
I0
aI0
aI0
aI1
aI0
aI0
aI0
aI0
aa(lp989
I0
aI0
aI0
aI0
aI1
aI0
aI0
aI0
aa(lp990
I0
aI0
aI0
aI0
aI0
aI0
aI0
aI0
aa(lp991
I0
aI0
aI0
aI0
aI0
aI0
aI0
aI0
aaa(lp992
(lp993
I0
aI0
aI0
aI0
aI0
aI0
aI0
aI0
aa(lp994
I0
aI0
aI0
aI0
aI0
aI0
aI0
aI0
aa(lp995
I0
aI0
aI0
aI0
aI0
aI0
aI0
aI0
aa(lp996
I0
aI1
aI1
aI0
aI1
aI0
aI0
aI0
aa(lp997
I0
aI1
aI0
aI1
aI0
aI1
aI0
aI0
aa(lp998
I0
aI1
aI0
aI1
aI0
aI1
aI0
aI0
aa(lp999
I0
aI0
aI0
aI0
aI0
aI0
aI0
aI0
aa(lp1000
I0
aI0
aI0
aI0
aI0
aI0
aI0
aI0
aaa(lp1001
(lp1002
I0
aI0
aI0
aI0
aI0
aI0
aI0
aI0
aa(lp1003
I0
aI0
aI0
aI0
aI0
aI0
aI0
aI0
aa(lp1004
I0
aI0
aI0
aI0
aI0
aI0
aI0
aI0
aa(lp1005
I0
aI1
aI1
aI1
aI1
aI0
aI0
aI0
aa(lp1006
I0
aI1
aI0
aI0
aI0
aI1
aI0
aI0
aa(lp1007
I0
aI1
aI0
aI0
aI0
aI1
aI0
aI0
aa(lp1008
I0
aI0
aI0
aI0
aI0
aI0
aI0
aI0
aa(lp1009
I0
aI0
aI0
aI0
aI0
aI0
aI0
aI0
aaa(lp1010
(lp1011
I0
aI0
aI0
aI0
aI0
aI0
aI0
aI0
aa(lp1012
I0
aI0
aI0
aI0
aI0
aI0
aI0
aI0
aa(lp1013
I0
aI0
aI1
aI1
aI1
aI0
aI0
aI0
aa(lp1014
I0
aI1
aI0
aI0
aI0
aI1
aI0
aI0
aa(lp1015
I0
aI1
aI0
aI0
aI0
aI1
aI0
aI0
aa(lp1016
I0
aI0
aI1
aI1
aI1
aI0
aI0
aI0
aa(lp1017
I0
aI0
aI0
aI0
aI0
aI0
aI0
aI0
aa(lp1018
I0
aI0
aI0
aI0
aI0
aI0
aI0
aI0
aaa(lp1019
(lp1020
I0
aI0
aI0
aI0
aI0
aI0
aI0
aI0
aa(lp1021
I0
aI0
aI0
aI0
aI0
aI0
aI0
aI0
aa(lp1022
I0
aI1
aI1
aI1
aI0
aI0
aI0
aI0
aa(lp1023
I0
aI1
aI0
aI0
aI1
aI0
aI0
aI0
aa(lp1024
I0
aI1
aI0
aI0
aI1
aI0
aI0
aI0
aa(lp1025
I0
aI1
aI1
aI1
aI0
aI0
aI0
aI0
aa(lp1026
I0
aI1
aI0
aI0
aI0
aI0
aI0
aI0
aa(lp1027
I0
aI0
aI0
aI0
aI0
aI0
aI0
aI0
aaa(lp1028
(lp1029
I0
aI0
aI0
aI0
aI0
aI0
aI0
aI0
aa(lp1030
I0
aI0
aI0
aI0
aI0
aI0
aI0
aI0
aa(lp1031
I0
aI0
aI1
aI1
aI1
aI0
aI0
aI0
aa(lp1032
I0
aI1
aI0
aI0
aI1
aI0
aI0
aI0
aa(lp1033
I0
aI0
aI1
aI1
aI1
aI0
aI0
aI0
aa(lp1034
I0
aI0
aI0
aI0
aI1
aI1
aI0
aI0
aa(lp1035
I0
aI0
aI0
aI0
aI1
aI0
aI0
aI0
aa(lp1036
I0
aI0
aI0
aI0
aI0
aI0
aI0
aI0
aaa(lp1037
(lp1038
I0
aI0
aI0
aI0
aI0
aI0
aI0
aI0
aa(lp1039
I0
aI0
aI0
aI0
aI0
aI0
aI0
aI0
aa(lp1040
I0
aI1
aI0
aI1
aI1
aI0
aI0
aI0
aa(lp1041
I0
aI1
aI1
aI0
aI0
aI1
aI0
aI0
aa(lp1042
I0
aI1
aI0
aI0
aI0
aI0
aI0
aI0
aa(lp1043
I0
aI1
aI0
aI0
aI0
aI0
aI0
aI0
aa(lp1044
I0
aI0
aI0
aI0
aI0
aI0
aI0
aI0
aa(lp1045
I0
aI0
aI0
aI0
aI0
aI0
aI0
aI0
aaa(lp1046
(lp1047
I0
aI0
aI0
aI0
aI0
aI0
aI0
aI0
aa(lp1048
I0
aI0
aI1
aI1
aI1
aI0
aI0
aI0
aa(lp1049
I0
aI1
aI0
aI0
aI0
aI0
aI0
aI0
aa(lp1050
I0
aI0
aI1
aI1
aI0
aI0
aI0
aI0
aa(lp1051
I0
aI0
aI0
aI0
aI1
aI0
aI0
aI0
aa(lp1052
I0
aI1
aI1
aI1
aI0
aI0
aI0
aI0
aa(lp1053
I0
aI0
aI0
aI0
aI0
aI0
aI0
aI0
aa(lp1054
I0
aI0
aI0
aI0
aI0
aI0
aI0
aI0
aaa(lp1055
(lp1056
I0
aI0
aI0
aI0
aI0
aI0
aI0
aI0
aa(lp1057
I0
aI1
aI0
aI0
aI0
aI0
aI0
aI0
aa(lp1058
I0
aI1
aI0
aI0
aI0
aI0
aI0
aI0
aa(lp1059
I0
aI1
aI1
aI0
aI0
aI0
aI0
aI0
aa(lp1060
I0
aI1
aI0
aI0
aI0
aI0
aI0
aI0
aa(lp1061
I0
aI0
aI1
aI1
aI0
aI0
aI0
aI0
aa(lp1062
I0
aI0
aI0
aI0
aI0
aI0
aI0
aI0
aa(lp1063
I0
aI0
aI0
aI0
aI0
aI0
aI0
aI0
aaa(lp1064
(lp1065
I0
aI0
aI0
aI0
aI0
aI0
aI0
aI0
aa(lp1066
I0
aI0
aI0
aI0
aI0
aI0
aI0
aI0
aa(lp1067
I0
aI0
aI0
aI0
aI0
aI0
aI0
aI0
aa(lp1068
I0
aI1
aI0
aI0
aI1
aI0
aI0
aI0
aa(lp1069
I0
aI1
aI0
aI0
aI1
aI0
aI0
aI0
aa(lp1070
I0
aI0
aI1
aI1
aI1
aI0
aI0
aI0
aa(lp1071
I0
aI0
aI0
aI0
aI0
aI0
aI0
aI0
aa(lp1072
I0
aI0
aI0
aI0
aI0
aI0
aI0
aI0
aaa(lp1073
(lp1074
I0
aI0
aI0
aI0
aI0
aI0
aI0
aI0
aa(lp1075
I0
aI0
aI0
aI0
aI0
aI0
aI0
aI0
aa(lp1076
I0
aI1
aI0
aI0
aI0
aI1
aI0
aI0
aa(lp1077
I0
aI1
aI0
aI0
aI0
aI1
aI0
aI0
aa(lp1078
I0
aI0
aI1
aI0
aI1
aI0
aI0
aI0
aa(lp1079
I0
aI0
aI0
aI1
aI0
aI0
aI0
aI0
aa(lp1080
I0
aI0
aI0
aI0
aI0
aI0
aI0
aI0
aa(lp1081
I0
aI0
aI0
aI0
aI0
aI0
aI0
aI0
aaa(lp1082
(lp1083
I0
aI0
aI0
aI0
aI0
aI0
aI0
aI0
aa(lp1084
I0
aI0
aI0
aI0
aI0
aI0
aI0
aI0
aa(lp1085
I0
aI0
aI0
aI0
aI0
aI0
aI0
aI0
aa(lp1086
I0
aI1
aI0
aI0
aI0
aI1
aI0
aI0
aa(lp1087
I0
aI1
aI0
aI1
aI0
aI1
aI0
aI0
aa(lp1088
I0
aI0
aI1
aI0
aI1
aI0
aI0
aI0
aa(lp1089
I0
aI0
aI0
aI0
aI0
aI0
aI0
aI0
aa(lp1090
I0
aI0
aI0
aI0
aI0
aI0
aI0
aI0
aaa(lp1091
(lp1092
I0
aI0
aI0
aI0
aI0
aI0
aI0
aI0
aa(lp1093
I0
aI0
aI0
aI0
aI0
aI0
aI0
aI0
aa(lp1094
I0
aI1
aI0
aI0
aI1
aI0
aI0
aI0
aa(lp1095
I0
aI0
aI1
aI1
aI0
aI0
aI0
aI0
aa(lp1096
I0
aI0
aI1
aI1
aI0
aI0
aI0
aI0
aa(lp1097
I0
aI1
aI0
aI0
aI1
aI0
aI0
aI0
aa(lp1098
I0
aI0
aI0
aI0
aI0
aI0
aI0
aI0
aa(lp1099
I0
aI0
aI0
aI0
aI0
aI0
aI0
aI0
aaa(lp1100
(lp1101
I0
aI0
aI0
aI0
aI0
aI0
aI0
aI0
aa(lp1102
I0
aI0
aI0
aI0
aI0
aI0
aI0
aI0
aa(lp1103
I0
aI1
aI0
aI0
aI1
aI0
aI0
aI0
aa(lp1104
I0
aI1
aI0
aI0
aI1
aI0
aI0
aI0
aa(lp1105
I0
aI0
aI1
aI1
aI1
aI0
aI0
aI0
aa(lp1106
I0
aI0
aI0
aI0
aI1
aI0
aI0
aI0
aa(lp1107
I0
aI0
aI1
aI1
aI0
aI0
aI0
aI0
aa(lp1108
I0
aI0
aI0
aI0
aI0
aI0
aI0
aI0
aaa(lp1109
(lp1110
I0
aI0
aI0
aI0
aI0
aI0
aI0
aI0
aa(lp1111
I0
aI0
aI0
aI0
aI0
aI0
aI0
aI0
aa(lp1112
I0
aI1
aI1
aI1
aI1
aI0
aI0
aI0
aa(lp1113
I0
aI0
aI0
aI1
aI0
aI0
aI0
aI0
aa(lp1114
I0
aI0
aI1
aI0
aI0
aI0
aI0
aI0
aa(lp1115
I0
aI1
aI1
aI1
aI1
aI0
aI0
aI0
aa(lp1116
I0
aI0
aI0
aI0
aI0
aI0
aI0
aI0
aa(lp1117
I0
aI0
aI0
aI0
aI0
aI0
aI0
aI0
aaa(lp1118
(lp1119
I0
aI0
aI0
aI0
aI1
aI0
aI0
aI0
aa(lp1120
I0
aI0
aI0
aI1
aI0
aI0
aI0
aI0
aa(lp1121
I0
aI0
aI0
aI1
aI0
aI0
aI0
aI0
aa(lp1122
I0
aI0
aI1
aI0
aI0
aI0
aI0
aI0
aa(lp1123
I0
aI0
aI0
aI1
aI0
aI0
aI0
aI0
aa(lp1124
I0
aI0
aI0
aI1
aI0
aI0
aI0
aI0
aa(lp1125
I0
aI0
aI0
aI0
aI1
aI0
aI0
aI0
aa(lp1126
I0
aI0
aI0
aI0
aI0
aI0
aI0
aI0
aaa(lp1127
(lp1128
I0
aI0
aI0
aI1
aI0
aI0
aI0
aI0
aa(lp1129
I0
aI0
aI0
aI1
aI0
aI0
aI0
aI0
aa(lp1130
I0
aI0
aI0
aI1
aI0
aI0
aI0
aI0
aa(lp1131
I0
aI0
aI0
aI1
aI0
aI0
aI0
aI0
aa(lp1132
I0
aI0
aI0
aI1
aI0
aI0
aI0
aI0
aa(lp1133
I0
aI0
aI0
aI1
aI0
aI0
aI0
aI0
aa(lp1134
I0
aI0
aI0
aI0
aI0
aI0
aI0
aI0
aa(lp1135
I0
aI0
aI0
aI0
aI0
aI0
aI0
aI0
aaa(lp1136
(lp1137
I0
aI0
aI0
aI1
aI0
aI0
aI0
aI0
aa(lp1138
I0
aI0
aI0
aI0
aI1
aI0
aI0
aI0
aa(lp1139
I0
aI0
aI0
aI0
aI1
aI0
aI0
aI0
aa(lp1140
I0
aI0
aI0
aI0
aI0
aI1
aI0
aI0
aa(lp1141
I0
aI0
aI0
aI0
aI1
aI0
aI0
aI0
aa(lp1142
I0
aI0
aI0
aI0
aI1
aI0
aI0
aI0
aa(lp1143
I0
aI0
aI0
aI1
aI0
aI0
aI0
aI0
aa(lp1144
I0
aI0
aI0
aI0
aI0
aI0
aI0
aI0
aaa(lp1145
(lp1146
I0
aI0
aI0
aI0
aI0
aI0
aI0
aI0
aa(lp1147
I0
aI0
aI0
aI0
aI0
aI0
aI0
aI0
aa(lp1148
I0
aI0
aI1
aI0
aI0
aI0
aI0
aI0
aa(lp1149
I0
aI1
aI0
aI1
aI0
aI1
aI0
aI0
aa(lp1150
I0
aI0
aI0
aI0
aI1
aI0
aI0
aI0
aa(lp1151
I0
aI0
aI0
aI0
aI0
aI0
aI0
aI0
aa(lp1152
I0
aI0
aI0
aI0
aI0
aI0
aI0
aI0
aa(lp1153
I0
aI0
aI0
aI0
aI0
aI0
aI0
aI0
aaa(lp1154
(lp1155
I0
aI0
aI0
aI0
aI0
aI0
aI0
aI0
aa(lp1156
I0
aI0
aI0
aI0
aI0
aI0
aI0
aI0
aa(lp1157
I0
aI0
aI0
aI0
aI0
aI0
aI0
aI0
aa(lp1158
I0
aI0
aI0
aI0
aI0
aI0
aI0
aI0
aa(lp1159
I0
aI0
aI0
aI0
aI0
aI0
aI0
aI0
aa(lp1160
I0
aI0
aI0
aI0
aI0
aI0
aI0
aI0
aa(lp1161
I0
aI0
aI0
aI0
aI0
aI0
aI0
aI0
aa(lp1162
I0
aI0
aI0
aI0
aI0
aI0
aI0
aI0
aaa(lp1163
(lp1164
I0
aI0
aI0
aI0
aI0
aI0
aI0
aI0
aa(lp1165
I0
aI0
aI0
aI0
aI0
aI0
aI0
aI0
aa(lp1166
I0
aI0
aI0
aI0
aI0
aI0
aI0
aI0
aa(lp1167
I0
aI0
aI0
aI0
aI0
aI0
aI0
aI0
aa(lp1168
I0
aI0
aI0
aI0
aI0
aI0
aI0
aI0
aa(lp1169
I0
aI0
aI0
aI0
aI0
aI0
aI0
aI0
aa(lp1170
I0
aI0
aI0
aI0
aI0
aI0
aI0
aI0
aa(lp1171
I0
aI0
aI0
aI0
aI0
aI0
aI0
aI0
aaa(lp1172
(lp1173
I0
aI0
aI0
aI0
aI0
aI0
aI0
aI0
aa(lp1174
I0
aI0
aI0
aI0
aI0
aI0
aI0
aI0
aa(lp1175
I0
aI0
aI0
aI0
aI0
aI0
aI0
aI0
aa(lp1176
I0
aI0
aI0
aI0
aI0
aI0
aI0
aI0
aa(lp1177
I0
aI0
aI0
aI0
aI0
aI0
aI0
aI0
aa(lp1178
I0
aI0
aI0
aI0
aI0
aI0
aI0
aI0
aa(lp1179
I0
aI0
aI0
aI0
aI0
aI0
aI0
aI0
aa(lp1180
I0
aI0
aI0
aI0
aI0
aI0
aI0
aI0
aaa(lp1181
(lp1182
I0
aI0
aI0
aI0
aI0
aI0
aI0
aI0
aa(lp1183
I0
aI0
aI0
aI0
aI0
aI0
aI0
aI0
aa(lp1184
I0
aI0
aI0
aI0
aI0
aI0
aI0
aI0
aa(lp1185
I0
aI0
aI0
aI0
aI0
aI0
aI0
aI0
aa(lp1186
I0
aI0
aI0
aI0
aI0
aI0
aI0
aI0
aa(lp1187
I0
aI0
aI0
aI0
aI0
aI0
aI0
aI0
aa(lp1188
I0
aI0
aI0
aI0
aI0
aI0
aI0
aI0
aa(lp1189
I0
aI0
aI0
aI0
aI0
aI0
aI0
aI0
aaa(lp1190
(lp1191
I0
aI0
aI0
aI0
aI0
aI0
aI0
aI0
aa(lp1192
I0
aI0
aI0
aI0
aI0
aI0
aI0
aI0
aa(lp1193
I0
aI0
aI0
aI0
aI0
aI0
aI0
aI0
aa(lp1194
I0
aI0
aI0
aI0
aI0
aI0
aI0
aI0
aa(lp1195
I0
aI0
aI0
aI0
aI0
aI0
aI0
aI0
aa(lp1196
I0
aI0
aI0
aI0
aI0
aI0
aI0
aI0
aa(lp1197
I0
aI0
aI0
aI0
aI0
aI0
aI0
aI0
aa(lp1198
I0
aI0
aI0
aI0
aI0
aI0
aI0
aI0
aaa(lp1199
(lp1200
I0
aI0
aI0
aI0
aI0
aI0
aI0
aI0
aa(lp1201
I0
aI0
aI0
aI0
aI0
aI0
aI0
aI0
aa(lp1202
I0
aI0
aI0
aI0
aI0
aI0
aI0
aI0
aa(lp1203
I0
aI0
aI0
aI0
aI0
aI0
aI0
aI0
aa(lp1204
I0
aI0
aI0
aI0
aI0
aI0
aI0
aI0
aa(lp1205
I0
aI0
aI0
aI0
aI0
aI0
aI0
aI0
aa(lp1206
I0
aI0
aI0
aI0
aI0
aI0
aI0
aI0
aa(lp1207
I0
aI0
aI0
aI0
aI0
aI0
aI0
aI0
aaa(lp1208
(lp1209
I0
aI0
aI0
aI0
aI0
aI0
aI0
aI0
aa(lp1210
I0
aI0
aI0
aI0
aI0
aI0
aI0
aI0
aa(lp1211
I0
aI0
aI0
aI0
aI0
aI0
aI0
aI0
aa(lp1212
I0
aI0
aI0
aI0
aI0
aI0
aI0
aI0
aa(lp1213
I0
aI0
aI0
aI0
aI0
aI0
aI0
aI0
aa(lp1214
I0
aI0
aI0
aI0
aI0
aI0
aI0
aI0
aa(lp1215
I0
aI0
aI0
aI0
aI0
aI0
aI0
aI0
aa(lp1216
I0
aI0
aI0
aI0
aI0
aI0
aI0
aI0
aaa(lp1217
(lp1218
I0
aI0
aI0
aI0
aI0
aI0
aI0
aI0
aa(lp1219
I0
aI0
aI0
aI0
aI0
aI0
aI0
aI0
aa(lp1220
I0
aI0
aI0
aI0
aI0
aI0
aI0
aI0
aa(lp1221
I0
aI0
aI0
aI0
aI0
aI0
aI0
aI0
aa(lp1222
I0
aI0
aI0
aI0
aI0
aI0
aI0
aI0
aa(lp1223
I0
aI0
aI0
aI0
aI0
aI0
aI0
aI0
aa(lp1224
I0
aI0
aI0
aI0
aI0
aI0
aI0
aI0
aa(lp1225
I0
aI0
aI0
aI0
aI0
aI0
aI0
aI0
aaa(lp1226
(lp1227
I0
aI0
aI0
aI0
aI0
aI0
aI0
aI0
aa(lp1228
I0
aI0
aI0
aI0
aI0
aI0
aI0
aI0
aa(lp1229
I0
aI0
aI0
aI0
aI0
aI0
aI0
aI0
aa(lp1230
I0
aI0
aI0
aI0
aI0
aI0
aI0
aI0
aa(lp1231
I0
aI0
aI0
aI0
aI0
aI0
aI0
aI0
aa(lp1232
I0
aI0
aI0
aI0
aI0
aI0
aI0
aI0
aa(lp1233
I0
aI0
aI0
aI0
aI0
aI0
aI0
aI0
aa(lp1234
I0
aI0
aI0
aI0
aI0
aI0
aI0
aI0
aaa(lp1235
(lp1236
I0
aI0
aI0
aI0
aI0
aI0
aI0
aI0
aa(lp1237
I0
aI0
aI0
aI0
aI0
aI0
aI0
aI0
aa(lp1238
I0
aI0
aI0
aI0
aI0
aI0
aI0
aI0
aa(lp1239
I0
aI0
aI0
aI0
aI0
aI0
aI0
aI0
aa(lp1240
I0
aI0
aI0
aI0
aI0
aI0
aI0
aI0
aa(lp1241
I0
aI0
aI0
aI0
aI0
aI0
aI0
aI0
aa(lp1242
I0
aI0
aI0
aI0
aI0
aI0
aI0
aI0
aa(lp1243
I0
aI0
aI0
aI0
aI0
aI0
aI0
aI0
aaa(lp1244
(lp1245
I0
aI0
aI0
aI0
aI0
aI0
aI0
aI0
aa(lp1246
I0
aI0
aI0
aI0
aI0
aI0
aI0
aI0
aa(lp1247
I0
aI0
aI0
aI0
aI0
aI0
aI0
aI0
aa(lp1248
I0
aI0
aI0
aI0
aI0
aI0
aI0
aI0
aa(lp1249
I0
aI0
aI0
aI0
aI0
aI0
aI0
aI0
aa(lp1250
I0
aI0
aI0
aI0
aI0
aI0
aI0
aI0
aa(lp1251
I0
aI0
aI0
aI0
aI0
aI0
aI0
aI0
aa(lp1252
I0
aI0
aI0
aI0
aI0
aI0
aI0
aI0
aaa(lp1253
(lp1254
I0
aI0
aI0
aI0
aI0
aI0
aI0
aI0
aa(lp1255
I0
aI0
aI0
aI0
aI0
aI0
aI0
aI0
aa(lp1256
I0
aI0
aI0
aI0
aI0
aI0
aI0
aI0
aa(lp1257
I0
aI0
aI0
aI0
aI0
aI0
aI0
aI0
aa(lp1258
I0
aI0
aI0
aI0
aI0
aI0
aI0
aI0
aa(lp1259
I0
aI0
aI0
aI0
aI0
aI0
aI0
aI0
aa(lp1260
I0
aI0
aI0
aI0
aI0
aI0
aI0
aI0
aa(lp1261
I0
aI0
aI0
aI0
aI0
aI0
aI0
aI0
aaa(lp1262
(lp1263
I0
aI0
aI0
aI0
aI0
aI0
aI0
aI0
aa(lp1264
I0
aI0
aI0
aI0
aI0
aI0
aI0
aI0
aa(lp1265
I0
aI0
aI0
aI0
aI0
aI0
aI0
aI0
aa(lp1266
I0
aI0
aI0
aI0
aI0
aI0
aI0
aI0
aa(lp1267
I0
aI0
aI0
aI0
aI0
aI0
aI0
aI0
aa(lp1268
I0
aI0
aI0
aI0
aI0
aI0
aI0
aI0
aa(lp1269
I0
aI0
aI0
aI0
aI0
aI0
aI0
aI0
aa(lp1270
I0
aI0
aI0
aI0
aI0
aI0
aI0
aI0
aaa(lp1271
(lp1272
I0
aI0
aI0
aI0
aI0
aI0
aI0
aI0
aa(lp1273
I0
aI0
aI0
aI0
aI0
aI0
aI0
aI0
aa(lp1274
I0
aI0
aI0
aI0
aI0
aI0
aI0
aI0
aa(lp1275
I0
aI0
aI0
aI0
aI0
aI0
aI0
aI0
aa(lp1276
I0
aI0
aI0
aI0
aI0
aI0
aI0
aI0
aa(lp1277
I0
aI0
aI0
aI0
aI0
aI0
aI0
aI0
aa(lp1278
I0
aI0
aI0
aI0
aI0
aI0
aI0
aI0
aa(lp1279
I0
aI0
aI0
aI0
aI0
aI0
aI0
aI0
aaa(lp1280
(lp1281
I0
aI0
aI0
aI0
aI0
aI0
aI0
aI0
aa(lp1282
I0
aI0
aI0
aI0
aI0
aI0
aI0
aI0
aa(lp1283
I0
aI0
aI0
aI0
aI0
aI0
aI0
aI0
aa(lp1284
I0
aI0
aI0
aI0
aI0
aI0
aI0
aI0
aa(lp1285
I0
aI0
aI0
aI0
aI0
aI0
aI0
aI0
aa(lp1286
I0
aI0
aI0
aI0
aI0
aI0
aI0
aI0
aa(lp1287
I0
aI0
aI0
aI0
aI0
aI0
aI0
aI0
aa(lp1288
I0
aI0
aI0
aI0
aI0
aI0
aI0
aI0
aaa(lp1289
(lp1290
I0
aI0
aI0
aI0
aI0
aI0
aI0
aI0
aa(lp1291
I0
aI0
aI0
aI0
aI0
aI0
aI0
aI0
aa(lp1292
I0
aI0
aI0
aI0
aI0
aI0
aI0
aI0
aa(lp1293
I0
aI0
aI0
aI0
aI0
aI0
aI0
aI0
aa(lp1294
I0
aI0
aI0
aI0
aI0
aI0
aI0
aI0
aa(lp1295
I0
aI0
aI0
aI0
aI0
aI0
aI0
aI0
aa(lp1296
I0
aI0
aI0
aI0
aI0
aI0
aI0
aI0
aa(lp1297
I0
aI0
aI0
aI0
aI0
aI0
aI0
aI0
aaa(lp1298
(lp1299
I0
aI0
aI0
aI0
aI0
aI0
aI0
aI0
aa(lp1300
I0
aI0
aI0
aI0
aI0
aI0
aI0
aI0
aa(lp1301
I0
aI0
aI0
aI0
aI0
aI0
aI0
aI0
aa(lp1302
I0
aI0
aI0
aI0
aI0
aI0
aI0
aI0
aa(lp1303
I0
aI0
aI0
aI0
aI0
aI0
aI0
aI0
aa(lp1304
I0
aI0
aI0
aI0
aI0
aI0
aI0
aI0
aa(lp1305
I0
aI0
aI0
aI0
aI0
aI0
aI0
aI0
aa(lp1306
I0
aI0
aI0
aI0
aI0
aI0
aI0
aI0
aaa(lp1307
(lp1308
I0
aI0
aI0
aI0
aI0
aI0
aI0
aI0
aa(lp1309
I0
aI0
aI0
aI0
aI0
aI0
aI0
aI0
aa(lp1310
I0
aI0
aI0
aI0
aI0
aI0
aI0
aI0
aa(lp1311
I0
aI0
aI0
aI0
aI0
aI0
aI0
aI0
aa(lp1312
I0
aI0
aI0
aI0
aI0
aI0
aI0
aI0
aa(lp1313
I0
aI0
aI0
aI0
aI0
aI0
aI0
aI0
aa(lp1314
I0
aI0
aI0
aI0
aI0
aI0
aI0
aI0
aa(lp1315
I0
aI0
aI0
aI0
aI0
aI0
aI0
aI0
aaa(lp1316
(lp1317
I0
aI0
aI0
aI0
aI0
aI0
aI0
aI0
aa(lp1318
I0
aI0
aI0
aI0
aI0
aI0
aI0
aI0
aa(lp1319
I0
aI0
aI0
aI0
aI0
aI0
aI0
aI0
aa(lp1320
I0
aI0
aI0
aI0
aI0
aI0
aI0
aI0
aa(lp1321
I0
aI0
aI0
aI0
aI0
aI0
aI0
aI0
aa(lp1322
I0
aI0
aI0
aI0
aI0
aI0
aI0
aI0
aa(lp1323
I0
aI0
aI0
aI0
aI0
aI0
aI0
aI0
aa(lp1324
I0
aI0
aI0
aI0
aI0
aI0
aI0
aI0
aaa(lp1325
(lp1326
I0
aI0
aI0
aI0
aI0
aI0
aI0
aI0
aa(lp1327
I0
aI0
aI0
aI0
aI0
aI0
aI0
aI0
aa(lp1328
I0
aI0
aI0
aI0
aI0
aI0
aI0
aI0
aa(lp1329
I0
aI0
aI0
aI0
aI0
aI0
aI0
aI0
aa(lp1330
I0
aI0
aI0
aI0
aI0
aI0
aI0
aI0
aa(lp1331
I0
aI0
aI0
aI0
aI0
aI0
aI0
aI0
aa(lp1332
I0
aI0
aI0
aI0
aI0
aI0
aI0
aI0
aa(lp1333
I0
aI0
aI0
aI0
aI0
aI0
aI0
aI0
aaa(lp1334
(lp1335
I0
aI0
aI0
aI0
aI0
aI0
aI0
aI0
aa(lp1336
I0
aI0
aI0
aI0
aI0
aI0
aI0
aI0
aa(lp1337
I0
aI0
aI0
aI0
aI0
aI0
aI0
aI0
aa(lp1338
I0
aI0
aI0
aI0
aI0
aI0
aI0
aI0
aa(lp1339
I0
aI0
aI0
aI0
aI0
aI0
aI0
aI0
aa(lp1340
I0
aI0
aI0
aI0
aI0
aI0
aI0
aI0
aa(lp1341
I0
aI0
aI0
aI0
aI0
aI0
aI0
aI0
aa(lp1342
I0
aI0
aI0
aI0
aI0
aI0
aI0
aI0
aaa(lp1343
(lp1344
I0
aI0
aI0
aI0
aI0
aI0
aI0
aI0
aa(lp1345
I0
aI0
aI0
aI0
aI0
aI0
aI0
aI0
aa(lp1346
I0
aI0
aI0
aI0
aI0
aI0
aI0
aI0
aa(lp1347
I0
aI0
aI0
aI0
aI0
aI0
aI0
aI0
aa(lp1348
I0
aI0
aI0
aI0
aI0
aI0
aI0
aI0
aa(lp1349
I0
aI0
aI0
aI0
aI0
aI0
aI0
aI0
aa(lp1350
I0
aI0
aI0
aI0
aI0
aI0
aI0
aI0
aa(lp1351
I0
aI0
aI0
aI0
aI0
aI0
aI0
aI0
aaa(lp1352
(lp1353
I0
aI0
aI0
aI0
aI0
aI0
aI0
aI0
aa(lp1354
I0
aI0
aI0
aI0
aI0
aI0
aI0
aI0
aa(lp1355
I0
aI0
aI0
aI0
aI0
aI0
aI0
aI0
aa(lp1356
I0
aI0
aI0
aI0
aI0
aI0
aI0
aI0
aa(lp1357
I0
aI0
aI0
aI0
aI0
aI0
aI0
aI0
aa(lp1358
I0
aI0
aI0
aI0
aI0
aI0
aI0
aI0
aa(lp1359
I0
aI0
aI0
aI0
aI0
aI0
aI0
aI0
aa(lp1360
I0
aI0
aI0
aI0
aI0
aI0
aI0
aI0
aaa(lp1361
(lp1362
I0
aI0
aI0
aI0
aI0
aI0
aI0
aI0
aa(lp1363
I0
aI0
aI0
aI0
aI0
aI0
aI0
aI0
aa(lp1364
I0
aI0
aI0
aI0
aI0
aI0
aI0
aI0
aa(lp1365
I0
aI0
aI0
aI0
aI0
aI0
aI0
aI0
aa(lp1366
I0
aI0
aI0
aI0
aI0
aI0
aI0
aI0
aa(lp1367
I0
aI0
aI0
aI0
aI0
aI0
aI0
aI0
aa(lp1368
I0
aI0
aI0
aI0
aI0
aI0
aI0
aI0
aa(lp1369
I0
aI0
aI0
aI0
aI0
aI0
aI0
aI0
aaa(lp1370
(lp1371
I0
aI0
aI0
aI0
aI0
aI0
aI0
aI0
aa(lp1372
I0
aI0
aI0
aI0
aI0
aI0
aI0
aI0
aa(lp1373
I0
aI0
aI0
aI0
aI0
aI0
aI0
aI0
aa(lp1374
I0
aI0
aI0
aI0
aI0
aI0
aI0
aI0
aa(lp1375
I0
aI0
aI0
aI0
aI0
aI0
aI0
aI0
aa(lp1376
I0
aI0
aI0
aI0
aI0
aI0
aI0
aI0
aa(lp1377
I0
aI0
aI0
aI0
aI0
aI0
aI0
aI0
aa(lp1378
I0
aI0
aI0
aI0
aI0
aI0
aI0
aI0
aaa(lp1379
(lp1380
I0
aI0
aI0
aI0
aI0
aI0
aI0
aI0
aa(lp1381
I0
aI0
aI0
aI0
aI0
aI0
aI0
aI0
aa(lp1382
I0
aI0
aI0
aI0
aI0
aI0
aI0
aI0
aa(lp1383
I0
aI0
aI0
aI0
aI0
aI0
aI0
aI0
aa(lp1384
I0
aI0
aI0
aI0
aI0
aI0
aI0
aI0
aa(lp1385
I0
aI0
aI0
aI0
aI0
aI0
aI0
aI0
aa(lp1386
I0
aI0
aI0
aI0
aI0
aI0
aI0
aI0
aa(lp1387
I0
aI0
aI0
aI0
aI0
aI0
aI0
aI0
aaa(lp1388
(lp1389
I0
aI0
aI0
aI0
aI0
aI0
aI0
aI0
aa(lp1390
I0
aI0
aI0
aI0
aI0
aI0
aI0
aI0
aa(lp1391
I0
aI0
aI0
aI0
aI0
aI0
aI0
aI0
aa(lp1392
I0
aI0
aI0
aI0
aI0
aI0
aI0
aI0
aa(lp1393
I0
aI0
aI0
aI0
aI0
aI0
aI0
aI0
aa(lp1394
I0
aI0
aI0
aI0
aI0
aI0
aI0
aI0
aa(lp1395
I0
aI0
aI0
aI0
aI0
aI0
aI0
aI0
aa(lp1396
I0
aI0
aI0
aI0
aI0
aI0
aI0
aI0
aaa(lp1397
(lp1398
I0
aI0
aI0
aI0
aI0
aI0
aI0
aI0
aa(lp1399
I0
aI0
aI0
aI0
aI0
aI0
aI0
aI0
aa(lp1400
I0
aI0
aI0
aI0
aI0
aI0
aI0
aI0
aa(lp1401
I0
aI0
aI0
aI0
aI0
aI0
aI0
aI0
aa(lp1402
I0
aI0
aI0
aI0
aI0
aI0
aI0
aI0
aa(lp1403
I0
aI0
aI0
aI0
aI0
aI0
aI0
aI0
aa(lp1404
I0
aI0
aI0
aI0
aI0
aI0
aI0
aI0
aa(lp1405
I0
aI0
aI0
aI0
aI0
aI0
aI0
aI0
aaa(lp1406
(lp1407
I0
aI0
aI0
aI0
aI0
aI0
aI0
aI0
aa(lp1408
I0
aI0
aI0
aI0
aI0
aI0
aI0
aI0
aa(lp1409
I0
aI0
aI0
aI0
aI0
aI0
aI0
aI0
aa(lp1410
I0
aI0
aI0
aI0
aI0
aI0
aI0
aI0
aa(lp1411
I0
aI0
aI0
aI0
aI0
aI0
aI0
aI0
aa(lp1412
I0
aI0
aI0
aI0
aI0
aI0
aI0
aI0
aa(lp1413
I0
aI0
aI0
aI0
aI0
aI0
aI0
aI0
aa(lp1414
I0
aI0
aI0
aI0
aI0
aI0
aI0
aI0
aaa(lp1415
(lp1416
I0
aI0
aI0
aI0
aI0
aI0
aI0
aI0
aa(lp1417
I0
aI0
aI0
aI0
aI0
aI0
aI0
aI0
aa(lp1418
I0
aI0
aI0
aI0
aI0
aI0
aI0
aI0
aa(lp1419
I0
aI0
aI0
aI0
aI0
aI0
aI0
aI0
aa(lp1420
I0
aI0
aI0
aI0
aI0
aI0
aI0
aI0
aa(lp1421
I0
aI0
aI0
aI0
aI0
aI0
aI0
aI0
aa(lp1422
I0
aI0
aI0
aI0
aI0
aI0
aI0
aI0
aa(lp1423
I0
aI0
aI0
aI0
aI0
aI0
aI0
aI0
aaa(lp1424
(lp1425
I0
aI0
aI0
aI0
aI0
aI0
aI0
aI0
aa(lp1426
I0
aI0
aI0
aI0
aI0
aI0
aI0
aI0
aa(lp1427
I0
aI0
aI0
aI0
aI0
aI0
aI0
aI0
aa(lp1428
I0
aI0
aI0
aI0
aI0
aI0
aI0
aI0
aa(lp1429
I0
aI0
aI0
aI0
aI0
aI0
aI0
aI0
aa(lp1430
I0
aI0
aI0
aI0
aI0
aI0
aI0
aI0
aa(lp1431
I0
aI0
aI0
aI0
aI0
aI0
aI0
aI0
aa(lp1432
I0
aI0
aI0
aI0
aI0
aI0
aI0
aI0
aaa(lp1433
(lp1434
I0
aI0
aI0
aI0
aI0
aI0
aI0
aI0
aa(lp1435
I0
aI0
aI0
aI0
aI0
aI0
aI0
aI0
aa(lp1436
I0
aI0
aI0
aI0
aI0
aI0
aI0
aI0
aa(lp1437
I0
aI0
aI0
aI0
aI0
aI0
aI0
aI0
aa(lp1438
I0
aI0
aI0
aI0
aI0
aI0
aI0
aI0
aa(lp1439
I0
aI0
aI0
aI0
aI0
aI0
aI0
aI0
aa(lp1440
I0
aI0
aI0
aI0
aI0
aI0
aI0
aI0
aa(lp1441
I0
aI0
aI0
aI0
aI0
aI0
aI0
aI0
aaa(lp1442
(lp1443
I0
aI0
aI0
aI0
aI0
aI0
aI0
aI0
aa(lp1444
I0
aI0
aI0
aI0
aI0
aI0
aI0
aI0
aa(lp1445
I0
aI0
aI0
aI0
aI0
aI0
aI0
aI0
aa(lp1446
I0
aI0
aI0
aI0
aI0
aI0
aI0
aI0
aa(lp1447
I0
aI0
aI0
aI0
aI0
aI0
aI0
aI0
aa(lp1448
I0
aI0
aI0
aI0
aI0
aI0
aI0
aI0
aa(lp1449
I0
aI0
aI0
aI0
aI0
aI0
aI0
aI0
aa(lp1450
I0
aI0
aI0
aI0
aI0
aI0
aI0
aI0
aaa(lp1451
(lp1452
I0
aI0
aI0
aI0
aI0
aI0
aI0
aI0
aa(lp1453
I0
aI0
aI0
aI0
aI0
aI0
aI0
aI0
aa(lp1454
I0
aI0
aI0
aI0
aI0
aI0
aI0
aI0
aa(lp1455
I0
aI0
aI0
aI0
aI0
aI0
aI0
aI0
aa(lp1456
I0
aI0
aI0
aI0
aI0
aI0
aI0
aI0
aa(lp1457
I0
aI0
aI0
aI0
aI0
aI0
aI0
aI0
aa(lp1458
I0
aI0
aI0
aI0
aI0
aI0
aI0
aI0
aa(lp1459
I0
aI0
aI0
aI0
aI0
aI0
aI0
aI0
aaa(lp1460
(lp1461
I0
aI0
aI0
aI0
aI0
aI0
aI0
aI0
aa(lp1462
I0
aI0
aI0
aI0
aI0
aI0
aI0
aI0
aa(lp1463
I0
aI0
aI0
aI0
aI0
aI0
aI0
aI0
aa(lp1464
I0
aI0
aI0
aI0
aI0
aI0
aI0
aI0
aa(lp1465
I0
aI0
aI0
aI0
aI0
aI0
aI0
aI0
aa(lp1466
I0
aI0
aI0
aI0
aI0
aI0
aI0
aI0
aa(lp1467
I0
aI0
aI0
aI0
aI0
aI0
aI0
aI0
aa(lp1468
I0
aI0
aI0
aI0
aI0
aI0
aI0
aI0
aaa(lp1469
(lp1470
I0
aI0
aI0
aI0
aI0
aI0
aI0
aI0
aa(lp1471
I0
aI0
aI0
aI0
aI0
aI0
aI0
aI0
aa(lp1472
I0
aI0
aI0
aI0
aI0
aI0
aI0
aI0
aa(lp1473
I0
aI0
aI0
aI0
aI0
aI0
aI0
aI0
aa(lp1474
I0
aI0
aI0
aI0
aI0
aI0
aI0
aI0
aa(lp1475
I0
aI0
aI0
aI0
aI0
aI0
aI0
aI0
aa(lp1476
I0
aI0
aI0
aI0
aI0
aI0
aI0
aI0
aa(lp1477
I0
aI0
aI0
aI0
aI0
aI0
aI0
aI0
aaa(lp1478
(lp1479
I0
aI0
aI0
aI0
aI0
aI0
aI0
aI0
aa(lp1480
I0
aI0
aI0
aI0
aI0
aI0
aI0
aI0
aa(lp1481
I0
aI0
aI0
aI0
aI0
aI0
aI0
aI0
aa(lp1482
I0
aI0
aI0
aI0
aI0
aI0
aI0
aI0
aa(lp1483
I0
aI0
aI0
aI0
aI0
aI0
aI0
aI0
aa(lp1484
I0
aI0
aI0
aI0
aI0
aI0
aI0
aI0
aa(lp1485
I0
aI0
aI0
aI0
aI0
aI0
aI0
aI0
aa(lp1486
I0
aI0
aI0
aI0
aI0
aI0
aI0
aI0
aaa(lp1487
(lp1488
I0
aI0
aI0
aI0
aI0
aI0
aI0
aI0
aa(lp1489
I0
aI0
aI0
aI0
aI0
aI0
aI0
aI0
aa(lp1490
I0
aI0
aI0
aI0
aI0
aI0
aI0
aI0
aa(lp1491
I0
aI0
aI0
aI0
aI0
aI0
aI0
aI0
aa(lp1492
I0
aI0
aI0
aI0
aI0
aI0
aI0
aI0
aa(lp1493
I0
aI0
aI0
aI0
aI0
aI0
aI0
aI0
aa(lp1494
I0
aI0
aI0
aI0
aI0
aI0
aI0
aI0
aa(lp1495
I0
aI0
aI0
aI0
aI0
aI0
aI0
aI0
aaa(lp1496
(lp1497
I0
aI0
aI0
aI0
aI0
aI0
aI0
aI0
aa(lp1498
I0
aI0
aI0
aI0
aI0
aI0
aI0
aI0
aa(lp1499
I0
aI0
aI0
aI0
aI0
aI0
aI0
aI0
aa(lp1500
I0
aI0
aI0
aI0
aI0
aI0
aI0
aI0
aa(lp1501
I0
aI0
aI0
aI0
aI0
aI0
aI0
aI0
aa(lp1502
I0
aI0
aI0
aI0
aI0
aI0
aI0
aI0
aa(lp1503
I0
aI0
aI0
aI0
aI0
aI0
aI0
aI0
aa(lp1504
I0
aI0
aI0
aI0
aI0
aI0
aI0
aI0
aaa(lp1505
(lp1506
I0
aI0
aI0
aI0
aI0
aI0
aI0
aI0
aa(lp1507
I0
aI0
aI0
aI0
aI0
aI0
aI0
aI0
aa(lp1508
I0
aI0
aI0
aI0
aI0
aI0
aI0
aI0
aa(lp1509
I0
aI0
aI0
aI0
aI0
aI0
aI0
aI0
aa(lp1510
I0
aI0
aI0
aI0
aI0
aI0
aI0
aI0
aa(lp1511
I0
aI0
aI0
aI0
aI0
aI0
aI0
aI0
aa(lp1512
I0
aI0
aI0
aI0
aI0
aI0
aI0
aI0
aa(lp1513
I0
aI0
aI0
aI0
aI0
aI0
aI0
aI0
aaa(lp1514
(lp1515
I0
aI0
aI0
aI0
aI0
aI0
aI0
aI0
aa(lp1516
I0
aI0
aI0
aI0
aI0
aI0
aI0
aI0
aa(lp1517
I0
aI0
aI0
aI0
aI0
aI0
aI0
aI0
aa(lp1518
I0
aI0
aI0
aI0
aI0
aI0
aI0
aI0
aa(lp1519
I0
aI0
aI0
aI0
aI0
aI0
aI0
aI0
aa(lp1520
I0
aI0
aI0
aI0
aI0
aI0
aI0
aI0
aa(lp1521
I0
aI0
aI0
aI0
aI0
aI0
aI0
aI0
aa(lp1522
I0
aI0
aI0
aI0
aI0
aI0
aI0
aI0
aaa(lp1523
(lp1524
I0
aI0
aI0
aI0
aI0
aI0
aI0
aI0
aa(lp1525
I0
aI0
aI0
aI0
aI0
aI0
aI0
aI0
aa(lp1526
I0
aI0
aI0
aI0
aI0
aI0
aI0
aI0
aa(lp1527
I0
aI0
aI0
aI0
aI0
aI0
aI0
aI0
aa(lp1528
I0
aI0
aI0
aI0
aI0
aI0
aI0
aI0
aa(lp1529
I0
aI0
aI0
aI0
aI0
aI0
aI0
aI0
aa(lp1530
I0
aI0
aI0
aI0
aI0
aI0
aI0
aI0
aa(lp1531
I0
aI0
aI0
aI0
aI0
aI0
aI0
aI0
aaa(lp1532
(lp1533
I0
aI0
aI0
aI0
aI0
aI0
aI0
aI0
aa(lp1534
I0
aI0
aI0
aI0
aI0
aI0
aI0
aI0
aa(lp1535
I0
aI0
aI0
aI0
aI0
aI0
aI0
aI0
aa(lp1536
I0
aI0
aI0
aI0
aI0
aI0
aI0
aI0
aa(lp1537
I0
aI0
aI0
aI0
aI0
aI0
aI0
aI0
aa(lp1538
I0
aI0
aI0
aI0
aI0
aI0
aI0
aI0
aa(lp1539
I0
aI0
aI0
aI0
aI0
aI0
aI0
aI0
aa(lp1540
I0
aI0
aI0
aI0
aI0
aI0
aI0
aI0
aaa(lp1541
(lp1542
I0
aI0
aI0
aI0
aI0
aI0
aI0
aI0
aa(lp1543
I0
aI0
aI0
aI0
aI0
aI0
aI0
aI0
aa(lp1544
I0
aI0
aI0
aI0
aI0
aI0
aI0
aI0
aa(lp1545
I0
aI0
aI0
aI0
aI0
aI0
aI0
aI0
aa(lp1546
I0
aI0
aI0
aI0
aI0
aI0
aI0
aI0
aa(lp1547
I0
aI0
aI0
aI0
aI0
aI0
aI0
aI0
aa(lp1548
I0
aI0
aI0
aI0
aI0
aI0
aI0
aI0
aa(lp1549
I0
aI0
aI0
aI0
aI0
aI0
aI0
aI0
aaa(lp1550
(lp1551
I0
aI0
aI0
aI0
aI0
aI0
aI0
aI0
aa(lp1552
I0
aI0
aI0
aI0
aI0
aI0
aI0
aI0
aa(lp1553
I0
aI0
aI0
aI0
aI0
aI0
aI0
aI0
aa(lp1554
I0
aI0
aI0
aI0
aI0
aI0
aI0
aI0
aa(lp1555
I0
aI0
aI0
aI0
aI0
aI0
aI0
aI0
aa(lp1556
I0
aI0
aI0
aI0
aI0
aI0
aI0
aI0
aa(lp1557
I0
aI0
aI0
aI0
aI0
aI0
aI0
aI0
aa(lp1558
I0
aI0
aI0
aI0
aI0
aI0
aI0
aI0
aaa(lp1559
(lp1560
I0
aI0
aI0
aI0
aI0
aI0
aI0
aI0
aa(lp1561
I0
aI0
aI0
aI0
aI0
aI0
aI0
aI0
aa(lp1562
I0
aI0
aI0
aI0
aI0
aI0
aI0
aI0
aa(lp1563
I0
aI0
aI0
aI0
aI0
aI0
aI0
aI0
aa(lp1564
I0
aI0
aI0
aI0
aI0
aI0
aI0
aI0
aa(lp1565
I0
aI0
aI0
aI0
aI0
aI0
aI0
aI0
aa(lp1566
I0
aI0
aI0
aI0
aI0
aI0
aI0
aI0
aa(lp1567
I0
aI0
aI0
aI0
aI0
aI0
aI0
aI0
aaa(lp1568
(lp1569
I0
aI0
aI0
aI0
aI0
aI0
aI0
aI0
aa(lp1570
I0
aI0
aI0
aI0
aI0
aI0
aI0
aI0
aa(lp1571
I0
aI0
aI0
aI0
aI0
aI0
aI0
aI0
aa(lp1572
I0
aI0
aI0
aI0
aI0
aI0
aI0
aI0
aa(lp1573
I0
aI0
aI0
aI0
aI0
aI0
aI0
aI0
aa(lp1574
I0
aI0
aI0
aI0
aI0
aI0
aI0
aI0
aa(lp1575
I0
aI0
aI0
aI0
aI0
aI0
aI0
aI0
aa(lp1576
I0
aI0
aI0
aI0
aI0
aI0
aI0
aI0
aaa(lp1577
(lp1578
I0
aI0
aI0
aI0
aI0
aI0
aI0
aI0
aa(lp1579
I0
aI0
aI0
aI0
aI0
aI0
aI0
aI0
aa(lp1580
I0
aI0
aI0
aI0
aI0
aI0
aI0
aI0
aa(lp1581
I0
aI0
aI0
aI0
aI0
aI0
aI0
aI0
aa(lp1582
I0
aI0
aI0
aI0
aI0
aI0
aI0
aI0
aa(lp1583
I0
aI0
aI0
aI0
aI0
aI0
aI0
aI0
aa(lp1584
I0
aI0
aI0
aI0
aI0
aI0
aI0
aI0
aa(lp1585
I0
aI0
aI0
aI0
aI0
aI0
aI0
aI0
aaa(lp1586
(lp1587
I0
aI0
aI0
aI0
aI0
aI0
aI0
aI0
aa(lp1588
I0
aI0
aI0
aI0
aI0
aI0
aI0
aI0
aa(lp1589
I0
aI0
aI0
aI0
aI0
aI0
aI0
aI0
aa(lp1590
I0
aI0
aI0
aI0
aI0
aI0
aI0
aI0
aa(lp1591
I0
aI0
aI0
aI0
aI0
aI0
aI0
aI0
aa(lp1592
I0
aI0
aI0
aI0
aI0
aI0
aI0
aI0
aa(lp1593
I0
aI0
aI0
aI0
aI0
aI0
aI0
aI0
aa(lp1594
I0
aI0
aI0
aI0
aI0
aI0
aI0
aI0
aaa(lp1595
(lp1596
I0
aI0
aI0
aI0
aI0
aI0
aI0
aI0
aa(lp1597
I0
aI0
aI0
aI0
aI0
aI0
aI0
aI0
aa(lp1598
I0
aI0
aI0
aI0
aI0
aI0
aI0
aI0
aa(lp1599
I0
aI0
aI0
aI0
aI0
aI0
aI0
aI0
aa(lp1600
I0
aI0
aI0
aI0
aI0
aI0
aI0
aI0
aa(lp1601
I0
aI0
aI0
aI0
aI0
aI0
aI0
aI0
aa(lp1602
I0
aI0
aI0
aI0
aI0
aI0
aI0
aI0
aa(lp1603
I0
aI0
aI0
aI0
aI0
aI0
aI0
aI0
aaa(lp1604
(lp1605
I0
aI0
aI0
aI0
aI0
aI0
aI0
aI0
aa(lp1606
I0
aI0
aI0
aI0
aI0
aI0
aI0
aI0
aa(lp1607
I0
aI0
aI0
aI0
aI0
aI0
aI0
aI0
aa(lp1608
I0
aI0
aI0
aI0
aI0
aI0
aI0
aI0
aa(lp1609
I0
aI0
aI0
aI0
aI0
aI0
aI0
aI0
aa(lp1610
I0
aI0
aI0
aI0
aI0
aI0
aI0
aI0
aa(lp1611
I0
aI0
aI0
aI0
aI0
aI0
aI0
aI0
aa(lp1612
I0
aI0
aI0
aI0
aI0
aI0
aI0
aI0
aaa(lp1613
(lp1614
I0
aI0
aI0
aI0
aI0
aI0
aI0
aI0
aa(lp1615
I0
aI0
aI0
aI0
aI0
aI0
aI0
aI0
aa(lp1616
I0
aI0
aI0
aI0
aI0
aI0
aI0
aI0
aa(lp1617
I0
aI0
aI0
aI0
aI0
aI0
aI0
aI0
aa(lp1618
I0
aI0
aI0
aI0
aI0
aI0
aI0
aI0
aa(lp1619
I0
aI0
aI0
aI0
aI0
aI0
aI0
aI0
aa(lp1620
I0
aI0
aI0
aI0
aI0
aI0
aI0
aI0
aa(lp1621
I0
aI0
aI0
aI0
aI0
aI0
aI0
aI0
aaa(lp1622
(lp1623
I0
aI0
aI0
aI0
aI0
aI0
aI0
aI0
aa(lp1624
I0
aI0
aI0
aI0
aI0
aI0
aI0
aI0
aa(lp1625
I0
aI0
aI0
aI0
aI0
aI0
aI0
aI0
aa(lp1626
I0
aI0
aI0
aI0
aI0
aI0
aI0
aI0
aa(lp1627
I0
aI0
aI0
aI0
aI0
aI0
aI0
aI0
aa(lp1628
I0
aI0
aI0
aI0
aI0
aI0
aI0
aI0
aa(lp1629
I0
aI0
aI0
aI0
aI0
aI0
aI0
aI0
aa(lp1630
I0
aI0
aI0
aI0
aI0
aI0
aI0
aI0
aaa(lp1631
(lp1632
I0
aI0
aI0
aI0
aI0
aI0
aI0
aI0
aa(lp1633
I0
aI0
aI0
aI0
aI0
aI0
aI0
aI0
aa(lp1634
I0
aI0
aI0
aI0
aI0
aI0
aI0
aI0
aa(lp1635
I0
aI0
aI0
aI0
aI0
aI0
aI0
aI0
aa(lp1636
I0
aI0
aI0
aI0
aI0
aI0
aI0
aI0
aa(lp1637
I0
aI0
aI0
aI0
aI0
aI0
aI0
aI0
aa(lp1638
I0
aI0
aI0
aI0
aI0
aI0
aI0
aI0
aa(lp1639
I0
aI0
aI0
aI0
aI0
aI0
aI0
aI0
aaa(lp1640
(lp1641
I0
aI0
aI0
aI0
aI0
aI0
aI0
aI0
aa(lp1642
I0
aI0
aI0
aI0
aI0
aI0
aI0
aI0
aa(lp1643
I0
aI0
aI0
aI0
aI0
aI0
aI0
aI0
aa(lp1644
I0
aI0
aI0
aI0
aI0
aI0
aI0
aI0
aa(lp1645
I0
aI0
aI0
aI0
aI0
aI0
aI0
aI0
aa(lp1646
I0
aI0
aI0
aI0
aI0
aI0
aI0
aI0
aa(lp1647
I0
aI0
aI0
aI0
aI0
aI0
aI0
aI0
aa(lp1648
I0
aI0
aI0
aI0
aI0
aI0
aI0
aI0
aaa(lp1649
(lp1650
I0
aI0
aI0
aI0
aI0
aI0
aI0
aI0
aa(lp1651
I0
aI0
aI0
aI0
aI0
aI0
aI0
aI0
aa(lp1652
I0
aI0
aI0
aI0
aI0
aI0
aI0
aI0
aa(lp1653
I0
aI0
aI0
aI0
aI0
aI0
aI0
aI0
aa(lp1654
I0
aI0
aI0
aI0
aI0
aI0
aI0
aI0
aa(lp1655
I0
aI0
aI0
aI0
aI0
aI0
aI0
aI0
aa(lp1656
I0
aI0
aI0
aI0
aI0
aI0
aI0
aI0
aa(lp1657
I0
aI0
aI0
aI0
aI0
aI0
aI0
aI0
aaa(lp1658
(lp1659
I0
aI0
aI0
aI0
aI0
aI0
aI0
aI0
aa(lp1660
I0
aI0
aI0
aI0
aI0
aI0
aI0
aI0
aa(lp1661
I0
aI0
aI0
aI0
aI0
aI0
aI0
aI0
aa(lp1662
I0
aI0
aI0
aI0
aI0
aI0
aI0
aI0
aa(lp1663
I0
aI0
aI0
aI0
aI0
aI0
aI0
aI0
aa(lp1664
I0
aI0
aI0
aI0
aI0
aI0
aI0
aI0
aa(lp1665
I0
aI0
aI0
aI0
aI0
aI0
aI0
aI0
aa(lp1666
I0
aI0
aI0
aI0
aI0
aI0
aI0
aI0
aaa(lp1667
(lp1668
I0
aI0
aI0
aI0
aI0
aI0
aI0
aI0
aa(lp1669
I0
aI0
aI0
aI0
aI0
aI0
aI0
aI0
aa(lp1670
I0
aI0
aI0
aI0
aI0
aI0
aI0
aI0
aa(lp1671
I0
aI0
aI0
aI0
aI0
aI0
aI0
aI0
aa(lp1672
I0
aI0
aI0
aI0
aI0
aI0
aI0
aI0
aa(lp1673
I0
aI0
aI0
aI0
aI0
aI0
aI0
aI0
aa(lp1674
I0
aI0
aI0
aI0
aI0
aI0
aI0
aI0
aa(lp1675
I0
aI0
aI0
aI0
aI0
aI0
aI0
aI0
aaa(lp1676
(lp1677
I0
aI0
aI0
aI0
aI0
aI0
aI0
aI0
aa(lp1678
I0
aI0
aI0
aI0
aI0
aI0
aI0
aI0
aa(lp1679
I0
aI0
aI0
aI0
aI0
aI0
aI0
aI0
aa(lp1680
I0
aI0
aI0
aI0
aI0
aI0
aI0
aI0
aa(lp1681
I0
aI0
aI0
aI0
aI0
aI0
aI0
aI0
aa(lp1682
I0
aI0
aI0
aI0
aI0
aI0
aI0
aI0
aa(lp1683
I0
aI0
aI0
aI0
aI0
aI0
aI0
aI0
aa(lp1684
I0
aI0
aI0
aI0
aI0
aI0
aI0
aI0
aaa(lp1685
(lp1686
I0
aI0
aI0
aI0
aI0
aI0
aI0
aI0
aa(lp1687
I0
aI0
aI0
aI0
aI0
aI0
aI0
aI0
aa(lp1688
I0
aI0
aI0
aI0
aI0
aI0
aI0
aI0
aa(lp1689
I0
aI0
aI0
aI0
aI0
aI0
aI0
aI0
aa(lp1690
I0
aI0
aI0
aI0
aI0
aI0
aI0
aI0
aa(lp1691
I0
aI0
aI0
aI0
aI0
aI0
aI0
aI0
aa(lp1692
I0
aI0
aI0
aI0
aI0
aI0
aI0
aI0
aa(lp1693
I0
aI0
aI0
aI0
aI0
aI0
aI0
aI0
aaa(lp1694
(lp1695
I0
aI0
aI0
aI0
aI0
aI0
aI0
aI0
aa(lp1696
I0
aI0
aI0
aI0
aI0
aI0
aI0
aI0
aa(lp1697
I0
aI0
aI0
aI0
aI0
aI0
aI0
aI0
aa(lp1698
I0
aI0
aI0
aI0
aI0
aI0
aI0
aI0
aa(lp1699
I0
aI0
aI0
aI0
aI0
aI0
aI0
aI0
aa(lp1700
I0
aI0
aI0
aI0
aI0
aI0
aI0
aI0
aa(lp1701
I0
aI0
aI0
aI0
aI0
aI0
aI0
aI0
aa(lp1702
I0
aI0
aI0
aI0
aI0
aI0
aI0
aI0
aaa(lp1703
(lp1704
I0
aI0
aI0
aI0
aI0
aI0
aI0
aI0
aa(lp1705
I0
aI0
aI0
aI0
aI0
aI0
aI0
aI0
aa(lp1706
I0
aI0
aI0
aI0
aI0
aI0
aI0
aI0
aa(lp1707
I0
aI0
aI0
aI0
aI0
aI0
aI0
aI0
aa(lp1708
I0
aI0
aI0
aI0
aI0
aI0
aI0
aI0
aa(lp1709
I0
aI0
aI0
aI0
aI0
aI0
aI0
aI0
aa(lp1710
I0
aI0
aI0
aI0
aI0
aI0
aI0
aI0
aa(lp1711
I0
aI0
aI0
aI0
aI0
aI0
aI0
aI0
aaa(lp1712
(lp1713
I0
aI0
aI0
aI0
aI0
aI0
aI0
aI0
aa(lp1714
I0
aI0
aI0
aI0
aI0
aI0
aI0
aI0
aa(lp1715
I0
aI0
aI0
aI0
aI0
aI0
aI0
aI0
aa(lp1716
I0
aI0
aI0
aI0
aI0
aI0
aI0
aI0
aa(lp1717
I0
aI0
aI0
aI0
aI0
aI0
aI0
aI0
aa(lp1718
I0
aI0
aI0
aI0
aI0
aI0
aI0
aI0
aa(lp1719
I0
aI0
aI0
aI0
aI0
aI0
aI0
aI0
aa(lp1720
I0
aI0
aI0
aI0
aI0
aI0
aI0
aI0
aaa(lp1721
(lp1722
I0
aI0
aI0
aI0
aI0
aI0
aI0
aI0
aa(lp1723
I0
aI0
aI0
aI0
aI0
aI0
aI0
aI0
aa(lp1724
I0
aI0
aI0
aI0
aI0
aI0
aI0
aI0
aa(lp1725
I0
aI0
aI0
aI0
aI0
aI0
aI0
aI0
aa(lp1726
I0
aI0
aI0
aI0
aI0
aI0
aI0
aI0
aa(lp1727
I0
aI0
aI0
aI0
aI0
aI0
aI0
aI0
aa(lp1728
I0
aI0
aI0
aI0
aI0
aI0
aI0
aI0
aa(lp1729
I0
aI0
aI0
aI0
aI0
aI0
aI0
aI0
aaa(lp1730
(lp1731
I0
aI0
aI0
aI0
aI0
aI0
aI0
aI0
aa(lp1732
I0
aI0
aI0
aI0
aI0
aI0
aI0
aI0
aa(lp1733
I0
aI0
aI0
aI0
aI0
aI0
aI0
aI0
aa(lp1734
I0
aI0
aI0
aI0
aI0
aI0
aI0
aI0
aa(lp1735
I0
aI0
aI0
aI0
aI0
aI0
aI0
aI0
aa(lp1736
I0
aI0
aI0
aI0
aI0
aI0
aI0
aI0
aa(lp1737
I0
aI0
aI0
aI0
aI0
aI0
aI0
aI0
aa(lp1738
I0
aI0
aI0
aI0
aI0
aI0
aI0
aI0
aaa(lp1739
(lp1740
I0
aI0
aI0
aI0
aI0
aI0
aI0
aI0
aa(lp1741
I0
aI0
aI0
aI0
aI0
aI0
aI0
aI0
aa(lp1742
I0
aI0
aI0
aI0
aI0
aI0
aI0
aI0
aa(lp1743
I0
aI0
aI0
aI0
aI0
aI0
aI0
aI0
aa(lp1744
I0
aI0
aI0
aI0
aI0
aI0
aI0
aI0
aa(lp1745
I0
aI0
aI0
aI0
aI0
aI0
aI0
aI0
aa(lp1746
I0
aI0
aI0
aI0
aI0
aI0
aI0
aI0
aa(lp1747
I0
aI0
aI0
aI0
aI0
aI0
aI0
aI0
aaa(lp1748
(lp1749
I0
aI0
aI0
aI0
aI0
aI0
aI0
aI0
aa(lp1750
I0
aI0
aI0
aI0
aI0
aI0
aI0
aI0
aa(lp1751
I0
aI0
aI0
aI0
aI0
aI0
aI0
aI0
aa(lp1752
I0
aI0
aI0
aI0
aI0
aI0
aI0
aI0
aa(lp1753
I0
aI0
aI0
aI0
aI0
aI0
aI0
aI0
aa(lp1754
I0
aI0
aI0
aI0
aI0
aI0
aI0
aI0
aa(lp1755
I0
aI0
aI0
aI0
aI0
aI0
aI0
aI0
aa(lp1756
I0
aI0
aI0
aI0
aI0
aI0
aI0
aI0
aaa(lp1757
(lp1758
I0
aI0
aI0
aI0
aI0
aI0
aI0
aI0
aa(lp1759
I0
aI0
aI0
aI0
aI0
aI0
aI0
aI0
aa(lp1760
I0
aI0
aI0
aI0
aI0
aI0
aI0
aI0
aa(lp1761
I0
aI0
aI0
aI0
aI0
aI0
aI0
aI0
aa(lp1762
I0
aI0
aI0
aI0
aI0
aI0
aI0
aI0
aa(lp1763
I0
aI0
aI0
aI0
aI0
aI0
aI0
aI0
aa(lp1764
I0
aI0
aI0
aI0
aI0
aI0
aI0
aI0
aa(lp1765
I0
aI0
aI0
aI0
aI0
aI0
aI0
aI0
aaa(lp1766
(lp1767
I0
aI0
aI0
aI0
aI0
aI0
aI0
aI0
aa(lp1768
I0
aI0
aI0
aI0
aI0
aI0
aI0
aI0
aa(lp1769
I0
aI0
aI0
aI0
aI0
aI0
aI0
aI0
aa(lp1770
I0
aI0
aI0
aI0
aI0
aI0
aI0
aI0
aa(lp1771
I0
aI0
aI0
aI0
aI0
aI0
aI0
aI0
aa(lp1772
I0
aI0
aI0
aI0
aI0
aI0
aI0
aI0
aa(lp1773
I0
aI0
aI0
aI0
aI0
aI0
aI0
aI0
aa(lp1774
I0
aI0
aI0
aI0
aI0
aI0
aI0
aI0
aaa(lp1775
(lp1776
I0
aI0
aI0
aI0
aI0
aI0
aI0
aI0
aa(lp1777
I0
aI0
aI0
aI0
aI0
aI0
aI0
aI0
aa(lp1778
I0
aI0
aI0
aI0
aI0
aI0
aI0
aI0
aa(lp1779
I0
aI0
aI0
aI0
aI0
aI0
aI0
aI0
aa(lp1780
I0
aI0
aI0
aI0
aI0
aI0
aI0
aI0
aa(lp1781
I0
aI0
aI0
aI0
aI0
aI0
aI0
aI0
aa(lp1782
I0
aI0
aI0
aI0
aI0
aI0
aI0
aI0
aa(lp1783
I0
aI0
aI0
aI0
aI0
aI0
aI0
aI0
aaa(lp1784
(lp1785
I0
aI0
aI0
aI0
aI0
aI0
aI0
aI0
aa(lp1786
I0
aI0
aI0
aI0
aI0
aI0
aI0
aI0
aa(lp1787
I0
aI0
aI0
aI0
aI0
aI0
aI0
aI0
aa(lp1788
I0
aI0
aI0
aI0
aI0
aI0
aI0
aI0
aa(lp1789
I0
aI0
aI0
aI0
aI0
aI0
aI0
aI0
aa(lp1790
I0
aI0
aI0
aI0
aI0
aI0
aI0
aI0
aa(lp1791
I0
aI0
aI0
aI0
aI0
aI0
aI0
aI0
aa(lp1792
I0
aI0
aI0
aI0
aI0
aI0
aI0
aI0
aaa(lp1793
(lp1794
I0
aI0
aI0
aI0
aI0
aI0
aI0
aI0
aa(lp1795
I0
aI0
aI0
aI0
aI0
aI0
aI0
aI0
aa(lp1796
I0
aI0
aI0
aI0
aI0
aI0
aI0
aI0
aa(lp1797
I0
aI0
aI0
aI0
aI0
aI0
aI0
aI0
aa(lp1798
I0
aI0
aI0
aI0
aI0
aI0
aI0
aI0
aa(lp1799
I0
aI0
aI0
aI0
aI0
aI0
aI0
aI0
aa(lp1800
I0
aI0
aI0
aI0
aI0
aI0
aI0
aI0
aa(lp1801
I0
aI0
aI0
aI0
aI0
aI0
aI0
aI0
aaa(lp1802
(lp1803
I0
aI0
aI0
aI0
aI0
aI0
aI0
aI0
aa(lp1804
I0
aI0
aI0
aI0
aI0
aI0
aI0
aI0
aa(lp1805
I0
aI0
aI0
aI0
aI0
aI0
aI0
aI0
aa(lp1806
I0
aI0
aI0
aI0
aI0
aI0
aI0
aI0
aa(lp1807
I0
aI0
aI0
aI0
aI0
aI0
aI0
aI0
aa(lp1808
I0
aI0
aI0
aI0
aI0
aI0
aI0
aI0
aa(lp1809
I0
aI0
aI0
aI0
aI0
aI0
aI0
aI0
aa(lp1810
I0
aI0
aI0
aI0
aI0
aI0
aI0
aI0
aaa(lp1811
(lp1812
I0
aI0
aI0
aI0
aI0
aI0
aI0
aI0
aa(lp1813
I0
aI0
aI0
aI0
aI0
aI0
aI0
aI0
aa(lp1814
I0
aI0
aI0
aI0
aI0
aI0
aI0
aI0
aa(lp1815
I0
aI0
aI0
aI0
aI0
aI0
aI0
aI0
aa(lp1816
I0
aI0
aI0
aI0
aI0
aI0
aI0
aI0
aa(lp1817
I0
aI0
aI0
aI0
aI0
aI0
aI0
aI0
aa(lp1818
I0
aI0
aI0
aI0
aI0
aI0
aI0
aI0
aa(lp1819
I0
aI0
aI0
aI0
aI0
aI0
aI0
aI0
aaa(lp1820
(lp1821
I0
aI0
aI0
aI0
aI0
aI0
aI0
aI0
aa(lp1822
I0
aI0
aI0
aI0
aI0
aI0
aI0
aI0
aa(lp1823
I0
aI0
aI0
aI0
aI0
aI0
aI0
aI0
aa(lp1824
I0
aI0
aI0
aI0
aI0
aI0
aI0
aI0
aa(lp1825
I0
aI0
aI0
aI0
aI0
aI0
aI0
aI0
aa(lp1826
I0
aI0
aI0
aI0
aI0
aI0
aI0
aI0
aa(lp1827
I0
aI0
aI0
aI0
aI0
aI0
aI0
aI0
aa(lp1828
I0
aI0
aI0
aI0
aI0
aI0
aI0
aI0
aaa(lp1829
(lp1830
I0
aI0
aI0
aI0
aI0
aI0
aI0
aI0
aa(lp1831
I0
aI0
aI0
aI0
aI0
aI0
aI0
aI0
aa(lp1832
I0
aI0
aI0
aI0
aI0
aI0
aI0
aI0
aa(lp1833
I0
aI0
aI0
aI0
aI0
aI0
aI0
aI0
aa(lp1834
I0
aI0
aI0
aI0
aI0
aI0
aI0
aI0
aa(lp1835
I0
aI0
aI0
aI0
aI0
aI0
aI0
aI0
aa(lp1836
I0
aI0
aI0
aI0
aI0
aI0
aI0
aI0
aa(lp1837
I0
aI0
aI0
aI0
aI0
aI0
aI0
aI0
aaa(lp1838
(lp1839
I0
aI0
aI0
aI0
aI0
aI0
aI0
aI0
aa(lp1840
I0
aI0
aI0
aI0
aI0
aI0
aI0
aI0
aa(lp1841
I0
aI0
aI0
aI0
aI0
aI0
aI0
aI0
aa(lp1842
I0
aI0
aI0
aI0
aI0
aI0
aI0
aI0
aa(lp1843
I0
aI0
aI0
aI0
aI0
aI0
aI0
aI0
aa(lp1844
I0
aI0
aI0
aI0
aI0
aI0
aI0
aI0
aa(lp1845
I0
aI0
aI0
aI0
aI0
aI0
aI0
aI0
aa(lp1846
I0
aI0
aI0
aI0
aI0
aI0
aI0
aI0
aaa(lp1847
(lp1848
I0
aI0
aI0
aI0
aI0
aI0
aI0
aI0
aa(lp1849
I0
aI0
aI0
aI0
aI0
aI0
aI0
aI0
aa(lp1850
I0
aI0
aI0
aI0
aI0
aI0
aI0
aI0
aa(lp1851
I0
aI0
aI0
aI0
aI0
aI0
aI0
aI0
aa(lp1852
I0
aI0
aI0
aI0
aI0
aI0
aI0
aI0
aa(lp1853
I0
aI0
aI0
aI0
aI0
aI0
aI0
aI0
aa(lp1854
I0
aI0
aI0
aI0
aI0
aI0
aI0
aI0
aa(lp1855
I0
aI0
aI0
aI0
aI0
aI0
aI0
aI0
aaa(lp1856
(lp1857
I0
aI0
aI0
aI0
aI0
aI0
aI0
aI0
aa(lp1858
I0
aI0
aI0
aI0
aI0
aI0
aI0
aI0
aa(lp1859
I0
aI0
aI0
aI0
aI0
aI0
aI0
aI0
aa(lp1860
I0
aI0
aI0
aI0
aI0
aI0
aI0
aI0
aa(lp1861
I0
aI0
aI0
aI0
aI0
aI0
aI0
aI0
aa(lp1862
I0
aI0
aI0
aI0
aI0
aI0
aI0
aI0
aa(lp1863
I0
aI0
aI0
aI0
aI0
aI0
aI0
aI0
aa(lp1864
I0
aI0
aI0
aI0
aI0
aI0
aI0
aI0
aaa(lp1865
(lp1866
I0
aI0
aI0
aI0
aI0
aI0
aI0
aI0
aa(lp1867
I0
aI0
aI0
aI0
aI0
aI0
aI0
aI0
aa(lp1868
I0
aI0
aI0
aI0
aI0
aI0
aI0
aI0
aa(lp1869
I0
aI0
aI0
aI0
aI0
aI0
aI0
aI0
aa(lp1870
I0
aI0
aI0
aI0
aI0
aI0
aI0
aI0
aa(lp1871
I0
aI0
aI0
aI0
aI0
aI0
aI0
aI0
aa(lp1872
I0
aI0
aI0
aI0
aI0
aI0
aI0
aI0
aa(lp1873
I0
aI0
aI0
aI0
aI0
aI0
aI0
aI0
aaa(lp1874
(lp1875
I0
aI0
aI0
aI0
aI0
aI0
aI0
aI0
aa(lp1876
I0
aI0
aI0
aI0
aI0
aI0
aI0
aI0
aa(lp1877
I0
aI0
aI0
aI0
aI0
aI0
aI0
aI0
aa(lp1878
I0
aI0
aI0
aI0
aI0
aI0
aI0
aI0
aa(lp1879
I0
aI0
aI0
aI0
aI0
aI0
aI0
aI0
aa(lp1880
I0
aI0
aI0
aI0
aI0
aI0
aI0
aI0
aa(lp1881
I0
aI0
aI0
aI0
aI0
aI0
aI0
aI0
aa(lp1882
I0
aI0
aI0
aI0
aI0
aI0
aI0
aI0
aaa(lp1883
(lp1884
I0
aI0
aI0
aI0
aI0
aI0
aI0
aI0
aa(lp1885
I0
aI0
aI0
aI0
aI0
aI0
aI0
aI0
aa(lp1886
I0
aI0
aI0
aI0
aI0
aI0
aI0
aI0
aa(lp1887
I0
aI0
aI0
aI0
aI0
aI0
aI0
aI0
aa(lp1888
I0
aI0
aI0
aI0
aI0
aI0
aI0
aI0
aa(lp1889
I0
aI0
aI0
aI0
aI0
aI0
aI0
aI0
aa(lp1890
I0
aI0
aI0
aI0
aI0
aI0
aI0
aI0
aa(lp1891
I0
aI0
aI0
aI0
aI0
aI0
aI0
aI0
aaa(lp1892
(lp1893
I0
aI0
aI0
aI0
aI0
aI0
aI0
aI0
aa(lp1894
I0
aI0
aI0
aI0
aI0
aI0
aI0
aI0
aa(lp1895
I0
aI0
aI0
aI0
aI0
aI0
aI0
aI0
aa(lp1896
I0
aI0
aI0
aI0
aI0
aI0
aI0
aI0
aa(lp1897
I0
aI0
aI0
aI0
aI0
aI0
aI0
aI0
aa(lp1898
I0
aI0
aI0
aI0
aI0
aI0
aI0
aI0
aa(lp1899
I0
aI0
aI0
aI0
aI0
aI0
aI0
aI0
aa(lp1900
I0
aI0
aI0
aI0
aI0
aI0
aI0
aI0
aaa(lp1901
(lp1902
I0
aI0
aI0
aI0
aI0
aI0
aI0
aI0
aa(lp1903
I0
aI0
aI0
aI0
aI0
aI0
aI0
aI0
aa(lp1904
I0
aI0
aI0
aI0
aI0
aI0
aI0
aI0
aa(lp1905
I0
aI0
aI0
aI0
aI0
aI0
aI0
aI0
aa(lp1906
I0
aI0
aI0
aI0
aI0
aI0
aI0
aI0
aa(lp1907
I0
aI0
aI0
aI0
aI0
aI0
aI0
aI0
aa(lp1908
I0
aI0
aI0
aI0
aI0
aI0
aI0
aI0
aa(lp1909
I0
aI0
aI0
aI0
aI0
aI0
aI0
aI0
aaa(lp1910
(lp1911
I0
aI0
aI0
aI0
aI0
aI0
aI0
aI0
aa(lp1912
I0
aI0
aI0
aI0
aI0
aI0
aI0
aI0
aa(lp1913
I0
aI0
aI0
aI0
aI0
aI0
aI0
aI0
aa(lp1914
I0
aI0
aI0
aI0
aI0
aI0
aI0
aI0
aa(lp1915
I0
aI0
aI0
aI0
aI0
aI0
aI0
aI0
aa(lp1916
I0
aI0
aI0
aI0
aI0
aI0
aI0
aI0
aa(lp1917
I0
aI0
aI0
aI0
aI0
aI0
aI0
aI0
aa(lp1918
I0
aI0
aI0
aI0
aI0
aI0
aI0
aI0
aaa(lp1919
(lp1920
I0
aI0
aI0
aI0
aI0
aI0
aI0
aI0
aa(lp1921
I0
aI0
aI0
aI0
aI0
aI0
aI0
aI0
aa(lp1922
I0
aI0
aI0
aI0
aI0
aI0
aI0
aI0
aa(lp1923
I0
aI0
aI0
aI0
aI0
aI0
aI0
aI0
aa(lp1924
I0
aI0
aI0
aI0
aI0
aI0
aI0
aI0
aa(lp1925
I0
aI0
aI0
aI0
aI0
aI0
aI0
aI0
aa(lp1926
I0
aI0
aI0
aI0
aI0
aI0
aI0
aI0
aa(lp1927
I0
aI0
aI0
aI0
aI0
aI0
aI0
aI0
aaa(lp1928
(lp1929
I0
aI0
aI0
aI0
aI0
aI0
aI0
aI0
aa(lp1930
I0
aI0
aI0
aI0
aI0
aI0
aI0
aI0
aa(lp1931
I0
aI0
aI0
aI0
aI0
aI0
aI0
aI0
aa(lp1932
I0
aI0
aI0
aI0
aI0
aI0
aI0
aI0
aa(lp1933
I0
aI0
aI0
aI0
aI0
aI0
aI0
aI0
aa(lp1934
I0
aI0
aI0
aI0
aI0
aI0
aI0
aI0
aa(lp1935
I0
aI0
aI0
aI0
aI0
aI0
aI0
aI0
aa(lp1936
I0
aI0
aI0
aI0
aI0
aI0
aI0
aI0
aaa(lp1937
(lp1938
I0
aI0
aI0
aI0
aI0
aI0
aI0
aI0
aa(lp1939
I0
aI0
aI0
aI0
aI0
aI0
aI0
aI0
aa(lp1940
I0
aI0
aI0
aI0
aI0
aI0
aI0
aI0
aa(lp1941
I0
aI0
aI0
aI0
aI0
aI0
aI0
aI0
aa(lp1942
I0
aI0
aI0
aI0
aI0
aI0
aI0
aI0
aa(lp1943
I0
aI0
aI0
aI0
aI0
aI0
aI0
aI0
aa(lp1944
I0
aI0
aI0
aI0
aI0
aI0
aI0
aI0
aa(lp1945
I0
aI0
aI0
aI0
aI0
aI0
aI0
aI0
aaa(lp1946
(lp1947
I0
aI0
aI0
aI0
aI0
aI0
aI0
aI0
aa(lp1948
I0
aI0
aI0
aI0
aI0
aI0
aI0
aI0
aa(lp1949
I0
aI0
aI0
aI0
aI0
aI0
aI0
aI0
aa(lp1950
I0
aI0
aI0
aI0
aI0
aI0
aI0
aI0
aa(lp1951
I0
aI0
aI0
aI0
aI0
aI0
aI0
aI0
aa(lp1952
I0
aI0
aI0
aI0
aI0
aI0
aI0
aI0
aa(lp1953
I0
aI0
aI0
aI0
aI0
aI0
aI0
aI0
aa(lp1954
I0
aI0
aI0
aI0
aI0
aI0
aI0
aI0
aaa(lp1955
(lp1956
I0
aI0
aI0
aI0
aI0
aI0
aI0
aI0
aa(lp1957
I0
aI0
aI0
aI0
aI0
aI0
aI0
aI0
aa(lp1958
I0
aI0
aI0
aI0
aI0
aI0
aI0
aI0
aa(lp1959
I0
aI0
aI0
aI0
aI0
aI0
aI0
aI0
aa(lp1960
I0
aI0
aI0
aI0
aI0
aI0
aI0
aI0
aa(lp1961
I0
aI0
aI0
aI0
aI0
aI0
aI0
aI0
aa(lp1962
I0
aI0
aI0
aI0
aI0
aI0
aI0
aI0
aa(lp1963
I0
aI0
aI0
aI0
aI0
aI0
aI0
aI0
aaa(lp1964
(lp1965
I0
aI0
aI0
aI0
aI0
aI0
aI0
aI0
aa(lp1966
I0
aI0
aI0
aI0
aI0
aI0
aI0
aI0
aa(lp1967
I0
aI0
aI0
aI0
aI0
aI0
aI0
aI0
aa(lp1968
I0
aI0
aI0
aI0
aI0
aI0
aI0
aI0
aa(lp1969
I0
aI0
aI0
aI0
aI0
aI0
aI0
aI0
aa(lp1970
I0
aI0
aI0
aI0
aI0
aI0
aI0
aI0
aa(lp1971
I0
aI0
aI0
aI0
aI0
aI0
aI0
aI0
aa(lp1972
I0
aI0
aI0
aI0
aI0
aI0
aI0
aI0
aaa(lp1973
(lp1974
I0
aI0
aI0
aI0
aI0
aI0
aI0
aI0
aa(lp1975
I0
aI0
aI0
aI0
aI0
aI0
aI0
aI0
aa(lp1976
I0
aI0
aI0
aI0
aI0
aI0
aI0
aI0
aa(lp1977
I0
aI0
aI0
aI0
aI0
aI0
aI0
aI0
aa(lp1978
I0
aI0
aI0
aI0
aI0
aI0
aI0
aI0
aa(lp1979
I0
aI0
aI0
aI0
aI0
aI0
aI0
aI0
aa(lp1980
I0
aI0
aI0
aI0
aI0
aI0
aI0
aI0
aa(lp1981
I0
aI0
aI0
aI0
aI0
aI0
aI0
aI0
aaa(lp1982
(lp1983
I0
aI0
aI0
aI0
aI0
aI0
aI0
aI0
aa(lp1984
I0
aI0
aI0
aI0
aI0
aI0
aI0
aI0
aa(lp1985
I0
aI0
aI0
aI0
aI0
aI0
aI0
aI0
aa(lp1986
I0
aI0
aI0
aI0
aI0
aI0
aI0
aI0
aa(lp1987
I0
aI0
aI0
aI0
aI0
aI0
aI0
aI0
aa(lp1988
I0
aI0
aI0
aI0
aI0
aI0
aI0
aI0
aa(lp1989
I0
aI0
aI0
aI0
aI0
aI0
aI0
aI0
aa(lp1990
I0
aI0
aI0
aI0
aI0
aI0
aI0
aI0
aaa(lp1991
(lp1992
I0
aI0
aI0
aI0
aI0
aI0
aI0
aI0
aa(lp1993
I0
aI0
aI0
aI0
aI0
aI0
aI0
aI0
aa(lp1994
I0
aI0
aI0
aI0
aI0
aI0
aI0
aI0
aa(lp1995
I0
aI0
aI0
aI0
aI0
aI0
aI0
aI0
aa(lp1996
I0
aI0
aI0
aI0
aI0
aI0
aI0
aI0
aa(lp1997
I0
aI0
aI0
aI0
aI0
aI0
aI0
aI0
aa(lp1998
I0
aI0
aI0
aI0
aI0
aI0
aI0
aI0
aa(lp1999
I0
aI0
aI0
aI0
aI0
aI0
aI0
aI0
aaa(lp2000
(lp2001
I0
aI0
aI0
aI0
aI0
aI0
aI0
aI0
aa(lp2002
I0
aI0
aI0
aI0
aI0
aI0
aI0
aI0
aa(lp2003
I0
aI0
aI0
aI0
aI0
aI0
aI0
aI0
aa(lp2004
I0
aI0
aI0
aI0
aI0
aI0
aI0
aI0
aa(lp2005
I0
aI0
aI0
aI0
aI0
aI0
aI0
aI0
aa(lp2006
I0
aI0
aI0
aI0
aI0
aI0
aI0
aI0
aa(lp2007
I0
aI0
aI0
aI0
aI0
aI0
aI0
aI0
aa(lp2008
I0
aI0
aI0
aI0
aI0
aI0
aI0
aI0
aaa(lp2009
(lp2010
I0
aI0
aI0
aI0
aI0
aI0
aI0
aI0
aa(lp2011
I0
aI0
aI0
aI0
aI0
aI0
aI0
aI0
aa(lp2012
I0
aI0
aI0
aI0
aI0
aI0
aI0
aI0
aa(lp2013
I0
aI0
aI0
aI0
aI0
aI0
aI0
aI0
aa(lp2014
I0
aI0
aI0
aI0
aI0
aI0
aI0
aI0
aa(lp2015
I0
aI0
aI0
aI0
aI0
aI0
aI0
aI0
aa(lp2016
I0
aI0
aI0
aI0
aI0
aI0
aI0
aI0
aa(lp2017
I0
aI0
aI0
aI0
aI0
aI0
aI0
aI0
aaa(lp2018
(lp2019
I0
aI0
aI0
aI0
aI0
aI0
aI0
aI0
aa(lp2020
I0
aI0
aI0
aI0
aI0
aI0
aI0
aI0
aa(lp2021
I0
aI0
aI0
aI0
aI0
aI0
aI0
aI0
aa(lp2022
I0
aI0
aI0
aI0
aI0
aI0
aI0
aI0
aa(lp2023
I0
aI0
aI0
aI0
aI0
aI0
aI0
aI0
aa(lp2024
I0
aI0
aI0
aI0
aI0
aI0
aI0
aI0
aa(lp2025
I0
aI0
aI0
aI0
aI0
aI0
aI0
aI0
aa(lp2026
I0
aI0
aI0
aI0
aI0
aI0
aI0
aI0
aaa(lp2027
(lp2028
I0
aI0
aI0
aI0
aI0
aI0
aI0
aI0
aa(lp2029
I0
aI0
aI0
aI0
aI0
aI0
aI0
aI0
aa(lp2030
I0
aI0
aI0
aI0
aI0
aI0
aI0
aI0
aa(lp2031
I0
aI0
aI0
aI0
aI0
aI0
aI0
aI0
aa(lp2032
I0
aI0
aI0
aI0
aI0
aI0
aI0
aI0
aa(lp2033
I0
aI0
aI0
aI0
aI0
aI0
aI0
aI0
aa(lp2034
I0
aI0
aI0
aI0
aI0
aI0
aI0
aI0
aa(lp2035
I0
aI0
aI0
aI0
aI0
aI0
aI0
aI0
aaa(lp2036
(lp2037
I0
aI0
aI0
aI0
aI0
aI0
aI0
aI0
aa(lp2038
I0
aI0
aI0
aI0
aI0
aI0
aI0
aI0
aa(lp2039
I0
aI0
aI0
aI0
aI0
aI0
aI0
aI0
aa(lp2040
I0
aI0
aI0
aI0
aI0
aI0
aI0
aI0
aa(lp2041
I0
aI0
aI0
aI0
aI0
aI0
aI0
aI0
aa(lp2042
I0
aI0
aI0
aI0
aI0
aI0
aI0
aI0
aa(lp2043
I0
aI0
aI0
aI0
aI0
aI0
aI0
aI0
aa(lp2044
I0
aI0
aI0
aI0
aI0
aI0
aI0
aI0
aaa(lp2045
(lp2046
I0
aI0
aI0
aI0
aI0
aI0
aI0
aI0
aa(lp2047
I0
aI0
aI0
aI0
aI0
aI0
aI0
aI0
aa(lp2048
I0
aI0
aI0
aI0
aI0
aI0
aI0
aI0
aa(lp2049
I0
aI0
aI0
aI0
aI0
aI0
aI0
aI0
aa(lp2050
I0
aI0
aI0
aI0
aI0
aI0
aI0
aI0
aa(lp2051
I0
aI0
aI0
aI0
aI0
aI0
aI0
aI0
aa(lp2052
I0
aI0
aI0
aI0
aI0
aI0
aI0
aI0
aa(lp2053
I0
aI0
aI0
aI0
aI0
aI0
aI0
aI0
aaa(lp2054
(lp2055
I0
aI0
aI0
aI0
aI0
aI0
aI0
aI0
aa(lp2056
I0
aI0
aI0
aI0
aI0
aI0
aI0
aI0
aa(lp2057
I0
aI0
aI0
aI0
aI0
aI0
aI0
aI0
aa(lp2058
I0
aI0
aI0
aI0
aI0
aI0
aI0
aI0
aa(lp2059
I0
aI0
aI0
aI0
aI0
aI0
aI0
aI0
aa(lp2060
I0
aI0
aI0
aI0
aI0
aI0
aI0
aI0
aa(lp2061
I0
aI0
aI0
aI0
aI0
aI0
aI0
aI0
aa(lp2062
I0
aI0
aI0
aI0
aI0
aI0
aI0
aI0
aaa(lp2063
(lp2064
I0
aI0
aI0
aI0
aI0
aI0
aI0
aI0
aa(lp2065
I0
aI0
aI0
aI0
aI0
aI0
aI0
aI0
aa(lp2066
I0
aI0
aI0
aI0
aI0
aI0
aI0
aI0
aa(lp2067
I0
aI0
aI0
aI0
aI0
aI0
aI0
aI0
aa(lp2068
I0
aI0
aI0
aI0
aI0
aI0
aI0
aI0
aa(lp2069
I0
aI0
aI0
aI0
aI0
aI0
aI0
aI0
aa(lp2070
I0
aI0
aI0
aI0
aI0
aI0
aI0
aI0
aa(lp2071
I0
aI0
aI0
aI0
aI0
aI0
aI0
aI0
aaa(lp2072
(lp2073
I0
aI0
aI0
aI0
aI0
aI0
aI0
aI0
aa(lp2074
I0
aI0
aI0
aI0
aI0
aI0
aI0
aI0
aa(lp2075
I0
aI0
aI0
aI0
aI0
aI0
aI0
aI0
aa(lp2076
I0
aI0
aI0
aI0
aI0
aI0
aI0
aI0
aa(lp2077
I0
aI0
aI0
aI0
aI0
aI0
aI0
aI0
aa(lp2078
I0
aI0
aI0
aI0
aI0
aI0
aI0
aI0
aa(lp2079
I0
aI0
aI0
aI0
aI0
aI0
aI0
aI0
aa(lp2080
I0
aI0
aI0
aI0
aI0
aI0
aI0
aI0
aaa(lp2081
(lp2082
I0
aI0
aI0
aI0
aI0
aI0
aI0
aI0
aa(lp2083
I0
aI0
aI0
aI0
aI0
aI0
aI0
aI0
aa(lp2084
I0
aI0
aI0
aI0
aI0
aI0
aI0
aI0
aa(lp2085
I0
aI0
aI0
aI0
aI0
aI0
aI0
aI0
aa(lp2086
I0
aI0
aI0
aI0
aI0
aI0
aI0
aI0
aa(lp2087
I0
aI0
aI0
aI0
aI0
aI0
aI0
aI0
aa(lp2088
I0
aI0
aI0
aI0
aI0
aI0
aI0
aI0
aa(lp2089
I0
aI0
aI0
aI0
aI0
aI0
aI0
aI0
aaa(lp2090
(lp2091
I0
aI0
aI0
aI0
aI0
aI0
aI0
aI0
aa(lp2092
I0
aI0
aI0
aI0
aI0
aI0
aI0
aI0
aa(lp2093
I0
aI0
aI0
aI0
aI0
aI0
aI0
aI0
aa(lp2094
I0
aI0
aI0
aI0
aI0
aI0
aI0
aI0
aa(lp2095
I0
aI0
aI0
aI0
aI0
aI0
aI0
aI0
aa(lp2096
I0
aI0
aI0
aI0
aI0
aI0
aI0
aI0
aa(lp2097
I0
aI0
aI0
aI0
aI0
aI0
aI0
aI0
aa(lp2098
I0
aI0
aI0
aI0
aI0
aI0
aI0
aI0
aaa(lp2099
(lp2100
I0
aI0
aI0
aI0
aI0
aI0
aI0
aI0
aa(lp2101
I0
aI0
aI0
aI0
aI0
aI0
aI0
aI0
aa(lp2102
I0
aI0
aI0
aI0
aI0
aI0
aI0
aI0
aa(lp2103
I0
aI0
aI0
aI0
aI0
aI0
aI0
aI0
aa(lp2104
I0
aI0
aI0
aI0
aI0
aI0
aI0
aI0
aa(lp2105
I0
aI0
aI0
aI0
aI0
aI0
aI0
aI0
aa(lp2106
I0
aI0
aI0
aI0
aI0
aI0
aI0
aI0
aa(lp2107
I0
aI0
aI0
aI0
aI0
aI0
aI0
aI0
aaa(lp2108
(lp2109
I0
aI0
aI0
aI0
aI0
aI0
aI0
aI0
aa(lp2110
I0
aI0
aI0
aI0
aI0
aI0
aI0
aI0
aa(lp2111
I0
aI0
aI0
aI0
aI0
aI0
aI0
aI0
aa(lp2112
I0
aI0
aI0
aI0
aI0
aI0
aI0
aI0
aa(lp2113
I0
aI0
aI0
aI0
aI0
aI0
aI0
aI0
aa(lp2114
I0
aI0
aI0
aI0
aI0
aI0
aI0
aI0
aa(lp2115
I0
aI0
aI0
aI0
aI0
aI0
aI0
aI0
aa(lp2116
I0
aI0
aI0
aI0
aI0
aI0
aI0
aI0
aaa(lp2117
(lp2118
I0
aI0
aI0
aI0
aI0
aI0
aI0
aI0
aa(lp2119
I0
aI0
aI0
aI0
aI0
aI0
aI0
aI0
aa(lp2120
I0
aI0
aI0
aI0
aI0
aI0
aI0
aI0
aa(lp2121
I0
aI0
aI0
aI0
aI0
aI0
aI0
aI0
aa(lp2122
I0
aI0
aI0
aI0
aI0
aI0
aI0
aI0
aa(lp2123
I0
aI0
aI0
aI0
aI0
aI0
aI0
aI0
aa(lp2124
I0
aI0
aI0
aI0
aI0
aI0
aI0
aI0
aa(lp2125
I0
aI0
aI0
aI0
aI0
aI0
aI0
aI0
aaa(lp2126
(lp2127
I0
aI0
aI0
aI0
aI0
aI0
aI0
aI0
aa(lp2128
I0
aI0
aI0
aI0
aI0
aI0
aI0
aI0
aa(lp2129
I0
aI0
aI0
aI0
aI0
aI0
aI0
aI0
aa(lp2130
I0
aI0
aI0
aI0
aI0
aI0
aI0
aI0
aa(lp2131
I0
aI0
aI0
aI0
aI0
aI0
aI0
aI0
aa(lp2132
I0
aI0
aI0
aI0
aI0
aI0
aI0
aI0
aa(lp2133
I0
aI0
aI0
aI0
aI0
aI0
aI0
aI0
aa(lp2134
I0
aI0
aI0
aI0
aI0
aI0
aI0
aI0
aaa(lp2135
(lp2136
I0
aI0
aI0
aI0
aI0
aI0
aI0
aI0
aa(lp2137
I0
aI0
aI0
aI0
aI0
aI0
aI0
aI0
aa(lp2138
I0
aI0
aI0
aI0
aI0
aI0
aI0
aI0
aa(lp2139
I0
aI0
aI0
aI0
aI0
aI0
aI0
aI0
aa(lp2140
I0
aI0
aI0
aI0
aI0
aI0
aI0
aI0
aa(lp2141
I0
aI0
aI0
aI0
aI0
aI0
aI0
aI0
aa(lp2142
I0
aI0
aI0
aI0
aI0
aI0
aI0
aI0
aa(lp2143
I0
aI0
aI0
aI0
aI0
aI0
aI0
aI0
aaa(lp2144
(lp2145
I0
aI0
aI0
aI0
aI0
aI0
aI0
aI0
aa(lp2146
I0
aI0
aI0
aI0
aI0
aI0
aI0
aI0
aa(lp2147
I0
aI0
aI0
aI0
aI0
aI0
aI0
aI0
aa(lp2148
I0
aI0
aI0
aI0
aI0
aI0
aI0
aI0
aa(lp2149
I0
aI0
aI0
aI0
aI0
aI0
aI0
aI0
aa(lp2150
I0
aI0
aI0
aI0
aI0
aI0
aI0
aI0
aa(lp2151
I0
aI0
aI0
aI0
aI0
aI0
aI0
aI0
aa(lp2152
I0
aI0
aI0
aI0
aI0
aI0
aI0
aI0
aaa(lp2153
(lp2154
I0
aI0
aI0
aI0
aI0
aI0
aI0
aI0
aa(lp2155
I0
aI0
aI0
aI0
aI0
aI0
aI0
aI0
aa(lp2156
I0
aI0
aI0
aI0
aI0
aI0
aI0
aI0
aa(lp2157
I0
aI0
aI0
aI0
aI0
aI0
aI0
aI0
aa(lp2158
I0
aI0
aI0
aI0
aI0
aI0
aI0
aI0
aa(lp2159
I0
aI0
aI0
aI0
aI0
aI0
aI0
aI0
aa(lp2160
I0
aI0
aI0
aI0
aI0
aI0
aI0
aI0
aa(lp2161
I0
aI0
aI0
aI0
aI0
aI0
aI0
aI0
aaa(lp2162
(lp2163
I0
aI0
aI0
aI0
aI0
aI0
aI0
aI0
aa(lp2164
I0
aI0
aI0
aI0
aI0
aI0
aI0
aI0
aa(lp2165
I0
aI0
aI0
aI0
aI0
aI0
aI0
aI0
aa(lp2166
I0
aI0
aI0
aI0
aI0
aI0
aI0
aI0
aa(lp2167
I0
aI0
aI0
aI0
aI0
aI0
aI0
aI0
aa(lp2168
I0
aI0
aI0
aI0
aI0
aI0
aI0
aI0
aa(lp2169
I0
aI0
aI0
aI0
aI0
aI0
aI0
aI0
aa(lp2170
I0
aI0
aI0
aI0
aI0
aI0
aI0
aI0
aaa(lp2171
(lp2172
I0
aI0
aI0
aI0
aI0
aI0
aI0
aI0
aa(lp2173
I0
aI0
aI0
aI0
aI0
aI0
aI0
aI0
aa(lp2174
I0
aI0
aI0
aI0
aI0
aI0
aI0
aI0
aa(lp2175
I0
aI0
aI0
aI0
aI0
aI0
aI0
aI0
aa(lp2176
I0
aI0
aI0
aI0
aI0
aI0
aI0
aI0
aa(lp2177
I0
aI0
aI0
aI0
aI0
aI0
aI0
aI0
aa(lp2178
I0
aI0
aI0
aI0
aI0
aI0
aI0
aI0
aa(lp2179
I0
aI0
aI0
aI0
aI0
aI0
aI0
aI0
aaa(lp2180
(lp2181
I0
aI0
aI0
aI0
aI0
aI0
aI0
aI0
aa(lp2182
I0
aI0
aI0
aI0
aI0
aI0
aI0
aI0
aa(lp2183
I0
aI0
aI0
aI0
aI0
aI0
aI0
aI0
aa(lp2184
I0
aI0
aI0
aI0
aI0
aI0
aI0
aI0
aa(lp2185
I0
aI0
aI0
aI0
aI0
aI0
aI0
aI0
aa(lp2186
I0
aI0
aI0
aI0
aI0
aI0
aI0
aI0
aa(lp2187
I0
aI0
aI0
aI0
aI0
aI0
aI0
aI0
aa(lp2188
I0
aI0
aI0
aI0
aI0
aI0
aI0
aI0
aaa(lp2189
(lp2190
I0
aI0
aI0
aI0
aI0
aI0
aI0
aI0
aa(lp2191
I0
aI0
aI0
aI0
aI0
aI0
aI0
aI0
aa(lp2192
I0
aI0
aI0
aI0
aI0
aI0
aI0
aI0
aa(lp2193
I0
aI0
aI0
aI0
aI0
aI0
aI0
aI0
aa(lp2194
I0
aI0
aI0
aI0
aI0
aI0
aI0
aI0
aa(lp2195
I0
aI0
aI0
aI0
aI0
aI0
aI0
aI0
aa(lp2196
I0
aI0
aI0
aI0
aI0
aI0
aI0
aI0
aa(lp2197
I0
aI0
aI0
aI0
aI0
aI0
aI0
aI0
aaa(lp2198
(lp2199
I0
aI0
aI0
aI0
aI0
aI0
aI0
aI0
aa(lp2200
I0
aI0
aI0
aI0
aI0
aI0
aI0
aI0
aa(lp2201
I0
aI0
aI0
aI0
aI0
aI0
aI0
aI0
aa(lp2202
I0
aI0
aI0
aI0
aI0
aI0
aI0
aI0
aa(lp2203
I0
aI0
aI0
aI0
aI0
aI0
aI0
aI0
aa(lp2204
I0
aI0
aI0
aI0
aI0
aI0
aI0
aI0
aa(lp2205
I0
aI0
aI0
aI0
aI0
aI0
aI0
aI0
aa(lp2206
I0
aI0
aI0
aI0
aI0
aI0
aI0
aI0
aaa(lp2207
(lp2208
I0
aI0
aI0
aI0
aI0
aI0
aI0
aI0
aa(lp2209
I0
aI0
aI0
aI0
aI0
aI0
aI0
aI0
aa(lp2210
I0
aI0
aI0
aI0
aI0
aI0
aI0
aI0
aa(lp2211
I0
aI0
aI0
aI0
aI0
aI0
aI0
aI0
aa(lp2212
I0
aI0
aI0
aI0
aI0
aI0
aI0
aI0
aa(lp2213
I0
aI0
aI0
aI0
aI0
aI0
aI0
aI0
aa(lp2214
I0
aI0
aI0
aI0
aI0
aI0
aI0
aI0
aa(lp2215
I0
aI0
aI0
aI0
aI0
aI0
aI0
aI0
aaa(lp2216
(lp2217
I0
aI0
aI0
aI0
aI0
aI0
aI0
aI0
aa(lp2218
I0
aI0
aI0
aI0
aI0
aI0
aI0
aI0
aa(lp2219
I0
aI0
aI0
aI0
aI0
aI0
aI0
aI0
aa(lp2220
I0
aI0
aI0
aI0
aI0
aI0
aI0
aI0
aa(lp2221
I0
aI0
aI0
aI0
aI0
aI0
aI0
aI0
aa(lp2222
I0
aI0
aI0
aI0
aI0
aI0
aI0
aI0
aa(lp2223
I0
aI0
aI0
aI0
aI0
aI0
aI0
aI0
aa(lp2224
I0
aI0
aI0
aI0
aI0
aI0
aI0
aI0
aaa(lp2225
(lp2226
I0
aI0
aI0
aI0
aI0
aI0
aI0
aI0
aa(lp2227
I0
aI0
aI0
aI0
aI0
aI0
aI0
aI0
aa(lp2228
I0
aI0
aI0
aI0
aI0
aI0
aI0
aI0
aa(lp2229
I0
aI0
aI0
aI0
aI0
aI0
aI0
aI0
aa(lp2230
I0
aI0
aI0
aI0
aI0
aI0
aI0
aI0
aa(lp2231
I0
aI0
aI0
aI0
aI0
aI0
aI0
aI0
aa(lp2232
I0
aI0
aI0
aI0
aI0
aI0
aI0
aI0
aa(lp2233
I0
aI0
aI0
aI0
aI0
aI0
aI0
aI0
aaa(lp2234
(lp2235
I0
aI0
aI0
aI0
aI0
aI0
aI0
aI0
aa(lp2236
I0
aI0
aI0
aI0
aI0
aI0
aI0
aI0
aa(lp2237
I0
aI0
aI0
aI0
aI0
aI0
aI0
aI0
aa(lp2238
I0
aI0
aI0
aI0
aI0
aI0
aI0
aI0
aa(lp2239
I0
aI0
aI0
aI0
aI0
aI0
aI0
aI0
aa(lp2240
I0
aI0
aI0
aI0
aI0
aI0
aI0
aI0
aa(lp2241
I0
aI0
aI0
aI0
aI0
aI0
aI0
aI0
aa(lp2242
I0
aI0
aI0
aI0
aI0
aI0
aI0
aI0
aaa(lp2243
(lp2244
I0
aI0
aI0
aI0
aI0
aI0
aI0
aI0
aa(lp2245
I0
aI0
aI0
aI0
aI0
aI0
aI0
aI0
aa(lp2246
I0
aI0
aI0
aI0
aI0
aI0
aI0
aI0
aa(lp2247
I0
aI0
aI0
aI0
aI0
aI0
aI0
aI0
aa(lp2248
I0
aI0
aI0
aI0
aI0
aI0
aI0
aI0
aa(lp2249
I0
aI0
aI0
aI0
aI0
aI0
aI0
aI0
aa(lp2250
I0
aI0
aI0
aI0
aI0
aI0
aI0
aI0
aa(lp2251
I0
aI0
aI0
aI0
aI0
aI0
aI0
aI0
aaa(lp2252
(lp2253
I0
aI0
aI0
aI0
aI0
aI0
aI0
aI0
aa(lp2254
I0
aI0
aI0
aI0
aI0
aI0
aI0
aI0
aa(lp2255
I0
aI0
aI0
aI0
aI0
aI0
aI0
aI0
aa(lp2256
I0
aI0
aI0
aI0
aI0
aI0
aI0
aI0
aa(lp2257
I0
aI0
aI0
aI0
aI0
aI0
aI0
aI0
aa(lp2258
I0
aI0
aI0
aI0
aI0
aI0
aI0
aI0
aa(lp2259
I0
aI0
aI0
aI0
aI0
aI0
aI0
aI0
aa(lp2260
I0
aI0
aI0
aI0
aI0
aI0
aI0
aI0
aaa(lp2261
(lp2262
I0
aI0
aI0
aI0
aI0
aI0
aI0
aI0
aa(lp2263
I0
aI0
aI0
aI0
aI0
aI0
aI0
aI0
aa(lp2264
I0
aI0
aI0
aI0
aI0
aI0
aI0
aI0
aa(lp2265
I0
aI0
aI0
aI0
aI0
aI0
aI0
aI0
aa(lp2266
I0
aI0
aI0
aI0
aI0
aI0
aI0
aI0
aa(lp2267
I0
aI0
aI0
aI0
aI0
aI0
aI0
aI0
aa(lp2268
I0
aI0
aI0
aI0
aI0
aI0
aI0
aI0
aa(lp2269
I0
aI0
aI0
aI0
aI0
aI0
aI0
aI0
aaa(lp2270
(lp2271
I0
aI0
aI0
aI0
aI0
aI0
aI0
aI0
aa(lp2272
I0
aI0
aI0
aI0
aI0
aI0
aI0
aI0
aa(lp2273
I0
aI0
aI0
aI0
aI0
aI0
aI0
aI0
aa(lp2274
I0
aI0
aI0
aI0
aI0
aI0
aI0
aI0
aa(lp2275
I0
aI0
aI0
aI0
aI0
aI0
aI0
aI0
aa(lp2276
I0
aI0
aI0
aI0
aI0
aI0
aI0
aI0
aa(lp2277
I0
aI0
aI0
aI0
aI0
aI0
aI0
aI0
aa(lp2278
I0
aI0
aI0
aI0
aI0
aI0
aI0
aI0
aaa(lp2279
(lp2280
I0
aI0
aI0
aI0
aI0
aI0
aI0
aI0
aa(lp2281
I0
aI0
aI0
aI0
aI0
aI0
aI0
aI0
aa(lp2282
I0
aI0
aI0
aI0
aI0
aI0
aI0
aI0
aa(lp2283
I0
aI0
aI0
aI0
aI0
aI0
aI0
aI0
aa(lp2284
I0
aI0
aI0
aI0
aI0
aI0
aI0
aI0
aa(lp2285
I0
aI0
aI0
aI0
aI0
aI0
aI0
aI0
aa(lp2286
I0
aI0
aI0
aI0
aI0
aI0
aI0
aI0
aa(lp2287
I0
aI0
aI0
aI0
aI0
aI0
aI0
aI0
aaa(lp2288
(lp2289
I0
aI0
aI0
aI0
aI0
aI0
aI0
aI0
aa(lp2290
I0
aI0
aI0
aI0
aI0
aI0
aI0
aI0
aa(lp2291
I0
aI0
aI0
aI0
aI0
aI0
aI0
aI0
aa(lp2292
I0
aI0
aI0
aI0
aI0
aI0
aI0
aI0
aa(lp2293
I0
aI0
aI0
aI0
aI0
aI0
aI0
aI0
aa(lp2294
I0
aI0
aI0
aI0
aI0
aI0
aI0
aI0
aa(lp2295
I0
aI0
aI0
aI0
aI0
aI0
aI0
aI0
aa(lp2296
I0
aI0
aI0
aI0
aI0
aI0
aI0
aI0
aaa(lp2297
(lp2298
I0
aI0
aI0
aI0
aI0
aI0
aI0
aI0
aa(lp2299
I0
aI0
aI0
aI0
aI0
aI0
aI0
aI0
aa(lp2300
I0
aI0
aI0
aI0
aI0
aI0
aI0
aI0
aa(lp2301
I0
aI0
aI0
aI0
aI0
aI0
aI0
aI0
aa(lp2302
I0
aI0
aI0
aI0
aI0
aI0
aI0
aI0
aa(lp2303
I0
aI0
aI0
aI0
aI0
aI0
aI0
aI0
aa(lp2304
I0
aI0
aI0
aI0
aI0
aI0
aI0
aI0
aa(lp2305
I0
aI0
aI0
aI0
aI0
aI0
aI0
aI0
aaa(lp2306
(lp2307
I0
aI0
aI0
aI0
aI0
aI0
aI0
aI0
aa(lp2308
I0
aI0
aI0
aI0
aI0
aI0
aI0
aI0
aa(lp2309
I0
aI0
aI0
aI0
aI0
aI0
aI0
aI0
aa(lp2310
I0
aI0
aI0
aI0
aI0
aI0
aI0
aI0
aa(lp2311
I0
aI0
aI0
aI0
aI0
aI0
aI0
aI0
aa(lp2312
I0
aI0
aI0
aI0
aI0
aI0
aI0
aI0
aa(lp2313
I0
aI0
aI0
aI0
aI0
aI0
aI0
aI0
aa(lp2314
I0
aI0
aI0
aI0
aI0
aI0
aI0
aI0
aaasS'fg'
p2315
(dp2316
S'r'
I0
sS'b'
I0
sS'g'
I0
ssb.